(ilevelModule
Level
p0
(dp1
S'index'
p2
I4
sS'goal'
p3
cpygame
__rect_constructor
p4
(I5696
I416
I32
I32
tp5
Rp6
sS'paintBalls'
p7
(lp8
sS'messages'
p9
(lp10
(S'Day 4'
p11
(I140
I150
tp12
tp13
a(S'Wel..me ba.k to W..te Wor.d'
p14
(I800
I80
tp15
tp16
a(S'They forced me to run this place'
p17
(I2140
I150
tp18
tp19
a(S'It hurts'
p20
(I3180
I240
tp21
tp22
a(S'I want to go home'
p23
(I5385
I345
tp24
tp25
asS'hazards'
p26
(lp27
g4
(I4736
I32
I32
I32
tp28
Rp29
ag4
(I4000
I64
I32
I32
tp30
Rp31
ag4
(I4064
I64
I32
I32
tp32
Rp33
ag4
(I4128
I64
I32
I32
tp34
Rp35
ag4
(I4192
I64
I32
I32
tp36
Rp37
ag4
(I4736
I64
I32
I32
tp38
Rp39
ag4
(I4608
I96
I32
I32
tp40
Rp41
ag4
(I4672
I96
I32
I32
tp42
Rp43
ag4
(I4736
I96
I32
I32
tp44
Rp45
ag4
(I4928
I160
I32
I32
tp46
Rp47
ag4
(I5536
I160
I32
I32
tp48
Rp49
ag4
(I5568
I160
I32
I32
tp50
Rp51
ag4
(I3360
I224
I32
I32
tp52
Rp53
ag4
(I3424
I224
I32
I32
tp54
Rp55
ag4
(I4544
I224
I32
I32
tp56
Rp57
ag4
(I4928
I224
I32
I32
tp58
Rp59
ag4
(I2560
I256
I32
I32
tp60
Rp61
ag4
(I2592
I256
I32
I32
tp62
Rp63
ag4
(I3104
I256
I32
I32
tp64
Rp65
ag4
(I4544
I256
I32
I32
tp66
Rp67
ag4
(I384
I288
I32
I32
tp68
Rp69
ag4
(I1248
I288
I32
I32
tp70
Rp71
ag4
(I1280
I288
I32
I32
tp72
Rp73
ag4
(I1312
I288
I32
I32
tp74
Rp75
ag4
(I1344
I288
I32
I32
tp76
Rp77
ag4
(I1376
I288
I32
I32
tp78
Rp79
ag4
(I1408
I288
I32
I32
tp80
Rp81
ag4
(I1440
I288
I32
I32
tp82
Rp83
ag4
(I1472
I288
I32
I32
tp84
Rp85
ag4
(I1504
I288
I32
I32
tp86
Rp87
ag4
(I1536
I288
I32
I32
tp88
Rp89
ag4
(I4544
I288
I32
I32
tp90
Rp91
ag4
(I384
I320
I32
I32
tp92
Rp93
ag4
(I4096
I320
I32
I32
tp94
Rp95
ag4
(I384
I352
I32
I32
tp96
Rp97
ag4
(I1184
I352
I32
I32
tp98
Rp99
ag4
(I1216
I352
I32
I32
tp100
Rp101
ag4
(I1248
I352
I32
I32
tp102
Rp103
ag4
(I1280
I352
I32
I32
tp104
Rp105
ag4
(I1312
I352
I32
I32
tp106
Rp107
ag4
(I1344
I352
I32
I32
tp108
Rp109
ag4
(I1376
I352
I32
I32
tp110
Rp111
ag4
(I1408
I352
I32
I32
tp112
Rp113
ag4
(I1440
I352
I32
I32
tp114
Rp115
ag4
(I1472
I352
I32
I32
tp116
Rp117
ag4
(I1504
I352
I32
I32
tp118
Rp119
ag4
(I1536
I352
I32
I32
tp120
Rp121
ag4
(I3232
I352
I32
I32
tp122
Rp123
ag4
(I384
I384
I32
I32
tp124
Rp125
ag4
(I384
I416
I32
I32
tp126
Rp127
ag4
(I1184
I416
I32
I32
tp128
Rp129
ag4
(I1216
I416
I32
I32
tp130
Rp131
ag4
(I1248
I416
I32
I32
tp132
Rp133
ag4
(I1280
I416
I32
I32
tp134
Rp135
ag4
(I1312
I416
I32
I32
tp136
Rp137
ag4
(I1344
I416
I32
I32
tp138
Rp139
ag4
(I1376
I416
I32
I32
tp140
Rp141
ag4
(I1408
I416
I32
I32
tp142
Rp143
ag4
(I1440
I416
I32
I32
tp144
Rp145
ag4
(I1472
I416
I32
I32
tp146
Rp147
ag4
(I1504
I416
I32
I32
tp148
Rp149
ag4
(I1536
I416
I32
I32
tp150
Rp151
ag4
(I1664
I416
I32
I32
tp152
Rp153
ag4
(I1696
I416
I32
I32
tp154
Rp155
ag4
(I1728
I416
I32
I32
tp156
Rp157
ag4
(I1760
I416
I32
I32
tp158
Rp159
ag4
(I1952
I416
I32
I32
tp160
Rp161
ag4
(I1984
I416
I32
I32
tp162
Rp163
ag4
(I2016
I416
I32
I32
tp164
Rp165
ag4
(I2176
I416
I32
I32
tp166
Rp167
ag4
(I2208
I416
I32
I32
tp168
Rp169
ag4
(I2240
I416
I32
I32
tp170
Rp171
ag4
(I2272
I416
I32
I32
tp172
Rp173
ag4
(I2304
I416
I32
I32
tp174
Rp175
ag4
(I2336
I416
I32
I32
tp176
Rp177
ag4
(I2688
I416
I32
I32
tp178
Rp179
ag4
(I2720
I416
I32
I32
tp180
Rp181
ag4
(I2752
I416
I32
I32
tp182
Rp183
ag4
(I2784
I416
I32
I32
tp184
Rp185
ag4
(I2816
I416
I32
I32
tp186
Rp187
ag4
(I2880
I416
I32
I32
tp188
Rp189
ag4
(I2912
I416
I32
I32
tp190
Rp191
ag4
(I2944
I416
I32
I32
tp192
Rp193
ag4
(I2976
I416
I32
I32
tp194
Rp195
ag4
(I3008
I416
I32
I32
tp196
Rp197
ag4
(I3040
I416
I32
I32
tp198
Rp199
ag4
(I3072
I416
I32
I32
tp200
Rp201
ag4
(I3104
I416
I32
I32
tp202
Rp203
ag4
(I3136
I416
I32
I32
tp204
Rp205
ag4
(I3168
I416
I32
I32
tp206
Rp207
ag4
(I3200
I416
I32
I32
tp208
Rp209
ag4
(I3264
I416
I32
I32
tp210
Rp211
ag4
(I3296
I416
I32
I32
tp212
Rp213
ag4
(I3328
I416
I32
I32
tp214
Rp215
ag4
(I3360
I416
I32
I32
tp216
Rp217
ag4
(I3392
I416
I32
I32
tp218
Rp219
ag4
(I3424
I416
I32
I32
tp220
Rp221
ag4
(I3456
I416
I32
I32
tp222
Rp223
ag4
(I3488
I416
I32
I32
tp224
Rp225
ag4
(I3520
I416
I32
I32
tp226
Rp227
ag4
(I3552
I416
I32
I32
tp228
Rp229
ag4
(I3616
I416
I32
I32
tp230
Rp231
ag4
(I3648
I416
I32
I32
tp232
Rp233
ag4
(I3680
I416
I32
I32
tp234
Rp235
ag4
(I3712
I416
I32
I32
tp236
Rp237
ag4
(I3744
I416
I32
I32
tp238
Rp239
ag4
(I3776
I416
I32
I32
tp240
Rp241
ag4
(I3808
I416
I32
I32
tp242
Rp243
ag4
(I4608
I416
I32
I32
tp244
Rp245
ag4
(I4640
I416
I32
I32
tp246
Rp247
asS'hazardRotations'
p248
(lp249
I3
aI2
aI0
aI2
aI0
aI3
aI3
aI1
aI3
aI2
aI2
aI2
aI1
aI3
aI1
aI0
aI0
aI0
aI2
aI1
aI1
aI0
aI0
aI0
aI0
aI0
aI0
aI0
aI0
aI0
aI0
aI1
aI1
aI1
aI1
aI2
aI2
aI2
aI2
aI2
aI2
aI2
aI2
aI2
aI2
aI2
aI2
aI0
aI1
aI1
aI0
aI0
aI0
aI0
aI0
aI0
aI0
aI0
aI0
aI0
aI0
aI0
aI0
aI0
aI0
aI0
aI0
aI0
aI0
aI0
aI0
aI0
aI0
aI0
aI0
aI0
aI0
aI0
aI0
aI0
aI0
aI0
aI0
aI0
aI0
aI0
aI0
aI0
aI0
aI0
aI0
aI0
aI0
aI0
aI0
aI0
aI0
aI0
aI0
aI0
aI0
aI0
aI0
aI0
aI0
aI0
aI0
aI0
aI0
aI0
asS'playerStart'
p250
(I160
I416
tp251
sS'offsetStart'
p252
(I0
I0
tp253
sS'walls'
p254
(lp255
g4
(I0
I0
I32
I32
tp256
Rp257
ag4
(I3872
I0
I32
I32
tp258
Rp259
ag4
(I3904
I0
I32
I32
tp260
Rp261
ag4
(I3936
I0
I32
I32
tp262
Rp263
ag4
(I3968
I0
I32
I32
tp264
Rp265
ag4
(I4000
I0
I32
I32
tp266
Rp267
ag4
(I4032
I0
I32
I32
tp268
Rp269
ag4
(I4064
I0
I32
I32
tp270
Rp271
ag4
(I4096
I0
I32
I32
tp272
Rp273
ag4
(I4128
I0
I32
I32
tp274
Rp275
ag4
(I4160
I0
I32
I32
tp276
Rp277
ag4
(I4192
I0
I32
I32
tp278
Rp279
ag4
(I4224
I0
I32
I32
tp280
Rp281
ag4
(I4256
I0
I32
I32
tp282
Rp283
ag4
(I4288
I0
I32
I32
tp284
Rp285
ag4
(I4320
I0
I32
I32
tp286
Rp287
ag4
(I4352
I0
I32
I32
tp288
Rp289
ag4
(I4384
I0
I32
I32
tp290
Rp291
ag4
(I4416
I0
I32
I32
tp292
Rp293
ag4
(I4448
I0
I32
I32
tp294
Rp295
ag4
(I4480
I0
I32
I32
tp296
Rp297
ag4
(I4512
I0
I32
I32
tp298
Rp299
ag4
(I4544
I0
I32
I32
tp300
Rp301
ag4
(I4576
I0
I32
I32
tp302
Rp303
ag4
(I4608
I0
I32
I32
tp304
Rp305
ag4
(I4640
I0
I32
I32
tp306
Rp307
ag4
(I4672
I0
I32
I32
tp308
Rp309
ag4
(I4704
I0
I32
I32
tp310
Rp311
ag4
(I4736
I0
I32
I32
tp312
Rp313
ag4
(I4768
I0
I32
I32
tp314
Rp315
ag4
(I4800
I0
I32
I32
tp316
Rp317
ag4
(I4832
I0
I32
I32
tp318
Rp319
ag4
(I4864
I0
I32
I32
tp320
Rp321
ag4
(I4896
I0
I32
I32
tp322
Rp323
ag4
(I4928
I0
I32
I32
tp324
Rp325
ag4
(I4960
I0
I32
I32
tp326
Rp327
ag4
(I4992
I0
I32
I32
tp328
Rp329
ag4
(I5024
I0
I32
I32
tp330
Rp331
ag4
(I5056
I0
I32
I32
tp332
Rp333
ag4
(I5088
I0
I32
I32
tp334
Rp335
ag4
(I5120
I0
I32
I32
tp336
Rp337
ag4
(I5152
I0
I32
I32
tp338
Rp339
ag4
(I5184
I0
I32
I32
tp340
Rp341
ag4
(I5216
I0
I32
I32
tp342
Rp343
ag4
(I5248
I0
I32
I32
tp344
Rp345
ag4
(I5280
I0
I32
I32
tp346
Rp347
ag4
(I5312
I0
I32
I32
tp348
Rp349
ag4
(I5344
I0
I32
I32
tp350
Rp351
ag4
(I5376
I0
I32
I32
tp352
Rp353
ag4
(I5408
I0
I32
I32
tp354
Rp355
ag4
(I5440
I0
I32
I32
tp356
Rp357
ag4
(I5472
I0
I32
I32
tp358
Rp359
ag4
(I5504
I0
I32
I32
tp360
Rp361
ag4
(I5536
I0
I32
I32
tp362
Rp363
ag4
(I5568
I0
I32
I32
tp364
Rp365
ag4
(I5600
I0
I32
I32
tp366
Rp367
ag4
(I5632
I0
I32
I32
tp368
Rp369
ag4
(I5664
I0
I32
I32
tp370
Rp371
ag4
(I5696
I0
I32
I32
tp372
Rp373
ag4
(I5728
I0
I32
I32
tp374
Rp375
ag4
(I0
I32
I32
I32
tp376
Rp377
ag4
(I3872
I32
I32
I32
tp378
Rp379
ag4
(I4000
I32
I32
I32
tp380
Rp381
ag4
(I4128
I32
I32
I32
tp382
Rp383
ag4
(I4320
I32
I32
I32
tp384
Rp385
ag4
(I4704
I32
I32
I32
tp386
Rp387
ag4
(I5728
I32
I32
I32
tp388
Rp389
ag4
(I0
I64
I32
I32
tp390
Rp391
ag4
(I3872
I64
I32
I32
tp392
Rp393
ag4
(I4320
I64
I32
I32
tp394
Rp395
ag4
(I4384
I64
I32
I32
tp396
Rp397
ag4
(I4416
I64
I32
I32
tp398
Rp399
ag4
(I4448
I64
I32
I32
tp400
Rp401
ag4
(I4480
I64
I32
I32
tp402
Rp403
ag4
(I4512
I64
I32
I32
tp404
Rp405
ag4
(I4544
I64
I32
I32
tp406
Rp407
ag4
(I4576
I64
I32
I32
tp408
Rp409
ag4
(I4704
I64
I32
I32
tp410
Rp411
ag4
(I4800
I64
I32
I32
tp412
Rp413
ag4
(I4832
I64
I32
I32
tp414
Rp415
ag4
(I4864
I64
I32
I32
tp416
Rp417
ag4
(I4896
I64
I32
I32
tp418
Rp419
ag4
(I4928
I64
I32
I32
tp420
Rp421
ag4
(I4960
I64
I32
I32
tp422
Rp423
ag4
(I4992
I64
I32
I32
tp424
Rp425
ag4
(I5024
I64
I32
I32
tp426
Rp427
ag4
(I5056
I64
I32
I32
tp428
Rp429
ag4
(I5088
I64
I32
I32
tp430
Rp431
ag4
(I5120
I64
I32
I32
tp432
Rp433
ag4
(I5152
I64
I32
I32
tp434
Rp435
ag4
(I5184
I64
I32
I32
tp436
Rp437
ag4
(I5248
I64
I32
I32
tp438
Rp439
ag4
(I5280
I64
I32
I32
tp440
Rp441
ag4
(I5312
I64
I32
I32
tp442
Rp443
ag4
(I5344
I64
I32
I32
tp444
Rp445
ag4
(I5376
I64
I32
I32
tp446
Rp447
ag4
(I5408
I64
I32
I32
tp448
Rp449
ag4
(I5440
I64
I32
I32
tp450
Rp451
ag4
(I5472
I64
I32
I32
tp452
Rp453
ag4
(I5504
I64
I32
I32
tp454
Rp455
ag4
(I5536
I64
I32
I32
tp456
Rp457
ag4
(I5568
I64
I32
I32
tp458
Rp459
ag4
(I5600
I64
I32
I32
tp460
Rp461
ag4
(I5632
I64
I32
I32
tp462
Rp463
ag4
(I5664
I64
I32
I32
tp464
Rp465
ag4
(I5728
I64
I32
I32
tp466
Rp467
ag4
(I0
I96
I32
I32
tp468
Rp469
ag4
(I1568
I96
I32
I32
tp470
Rp471
ag4
(I1600
I96
I32
I32
tp472
Rp473
ag4
(I1632
I96
I32
I32
tp474
Rp475
ag4
(I3872
I96
I32
I32
tp476
Rp477
ag4
(I3936
I96
I32
I32
tp478
Rp479
ag4
(I4064
I96
I32
I32
tp480
Rp481
ag4
(I4192
I96
I32
I32
tp482
Rp483
ag4
(I4320
I96
I32
I32
tp484
Rp485
ag4
(I4576
I96
I32
I32
tp486
Rp487
ag4
(I4704
I96
I32
I32
tp488
Rp489
ag4
(I5120
I96
I32
I32
tp490
Rp491
ag4
(I5184
I96
I32
I32
tp492
Rp493
ag4
(I5728
I96
I32
I32
tp494
Rp495
ag4
(I0
I128
I32
I32
tp496
Rp497
ag4
(I1568
I128
I32
I32
tp498
Rp499
ag4
(I1632
I128
I32
I32
tp500
Rp501
ag4
(I2880
I128
I32
I32
tp502
Rp503
ag4
(I3872
I128
I32
I32
tp504
Rp505
ag4
(I3936
I128
I32
I32
tp506
Rp507
ag4
(I3968
I128
I32
I32
tp508
Rp509
ag4
(I4000
I128
I32
I32
tp510
Rp511
ag4
(I4032
I128
I32
I32
tp512
Rp513
ag4
(I4064
I128
I32
I32
tp514
Rp515
ag4
(I4096
I128
I32
I32
tp516
Rp517
ag4
(I4128
I128
I32
I32
tp518
Rp519
ag4
(I4160
I128
I32
I32
tp520
Rp521
ag4
(I4192
I128
I32
I32
tp522
Rp523
ag4
(I4224
I128
I32
I32
tp524
Rp525
ag4
(I4256
I128
I32
I32
tp526
Rp527
ag4
(I4320
I128
I32
I32
tp528
Rp529
ag4
(I4352
I128
I32
I32
tp530
Rp531
ag4
(I4384
I128
I32
I32
tp532
Rp533
ag4
(I4416
I128
I32
I32
tp534
Rp535
ag4
(I4448
I128
I32
I32
tp536
Rp537
ag4
(I4480
I128
I32
I32
tp538
Rp539
ag4
(I4512
I128
I32
I32
tp540
Rp541
ag4
(I4576
I128
I32
I32
tp542
Rp543
ag4
(I4704
I128
I32
I32
tp544
Rp545
ag4
(I4736
I128
I32
I32
tp546
Rp547
ag4
(I4768
I128
I32
I32
tp548
Rp549
ag4
(I4800
I128
I32
I32
tp550
Rp551
ag4
(I4832
I128
I32
I32
tp552
Rp553
ag4
(I4864
I128
I32
I32
tp554
Rp555
ag4
(I4896
I128
I32
I32
tp556
Rp557
ag4
(I4928
I128
I32
I32
tp558
Rp559
ag4
(I4960
I128
I32
I32
tp560
Rp561
ag4
(I4992
I128
I32
I32
tp562
Rp563
ag4
(I5024
I128
I32
I32
tp564
Rp565
ag4
(I5056
I128
I32
I32
tp566
Rp567
ag4
(I5120
I128
I32
I32
tp568
Rp569
ag4
(I5184
I128
I32
I32
tp570
Rp571
ag4
(I5216
I128
I32
I32
tp572
Rp573
ag4
(I5248
I128
I32
I32
tp574
Rp575
ag4
(I5280
I128
I32
I32
tp576
Rp577
ag4
(I5312
I128
I32
I32
tp578
Rp579
ag4
(I5344
I128
I32
I32
tp580
Rp581
ag4
(I5376
I128
I32
I32
tp582
Rp583
ag4
(I5408
I128
I32
I32
tp584
Rp585
ag4
(I5440
I128
I32
I32
tp586
Rp587
ag4
(I5472
I128
I32
I32
tp588
Rp589
ag4
(I5504
I128
I32
I32
tp590
Rp591
ag4
(I5536
I128
I32
I32
tp592
Rp593
ag4
(I5568
I128
I32
I32
tp594
Rp595
ag4
(I5600
I128
I32
I32
tp596
Rp597
ag4
(I5632
I128
I32
I32
tp598
Rp599
ag4
(I5664
I128
I32
I32
tp600
Rp601
ag4
(I5728
I128
I32
I32
tp602
Rp603
ag4
(I0
I160
I32
I32
tp604
Rp605
ag4
(I1312
I160
I32
I32
tp606
Rp607
ag4
(I1344
I160
I32
I32
tp608
Rp609
ag4
(I1376
I160
I32
I32
tp610
Rp611
ag4
(I1408
I160
I32
I32
tp612
Rp613
ag4
(I1440
I160
I32
I32
tp614
Rp615
ag4
(I1472
I160
I32
I32
tp616
Rp617
ag4
(I1568
I160
I32
I32
tp618
Rp619
ag4
(I1632
I160
I32
I32
tp620
Rp621
ag4
(I3232
I160
I32
I32
tp622
Rp623
ag4
(I3872
I160
I32
I32
tp624
Rp625
ag4
(I4256
I160
I32
I32
tp626
Rp627
ag4
(I4576
I160
I32
I32
tp628
Rp629
ag4
(I4640
I160
I32
I32
tp630
Rp631
ag4
(I4672
I160
I32
I32
tp632
Rp633
ag4
(I4704
I160
I32
I32
tp634
Rp635
ag4
(I4736
I160
I32
I32
tp636
Rp637
ag4
(I4768
I160
I32
I32
tp638
Rp639
ag4
(I4800
I160
I32
I32
tp640
Rp641
ag4
(I5120
I160
I32
I32
tp642
Rp643
ag4
(I5472
I160
I32
I32
tp644
Rp645
ag4
(I5632
I160
I32
I32
tp646
Rp647
ag4
(I5664
I160
I32
I32
tp648
Rp649
ag4
(I5728
I160
I32
I32
tp650
Rp651
ag4
(I0
I192
I32
I32
tp652
Rp653
ag4
(I1568
I192
I32
I32
tp654
Rp655
ag4
(I1632
I192
I32
I32
tp656
Rp657
ag4
(I3872
I192
I32
I32
tp658
Rp659
ag4
(I3904
I192
I32
I32
tp660
Rp661
ag4
(I3936
I192
I32
I32
tp662
Rp663
ag4
(I3968
I192
I32
I32
tp664
Rp665
ag4
(I4000
I192
I32
I32
tp666
Rp667
ag4
(I4032
I192
I32
I32
tp668
Rp669
ag4
(I4064
I192
I32
I32
tp670
Rp671
ag4
(I4096
I192
I32
I32
tp672
Rp673
ag4
(I4128
I192
I32
I32
tp674
Rp675
ag4
(I4160
I192
I32
I32
tp676
Rp677
ag4
(I4192
I192
I32
I32
tp678
Rp679
ag4
(I4256
I192
I32
I32
tp680
Rp681
ag4
(I4288
I192
I32
I32
tp682
Rp683
ag4
(I4320
I192
I32
I32
tp684
Rp685
ag4
(I4352
I192
I32
I32
tp686
Rp687
ag4
(I4384
I192
I32
I32
tp688
Rp689
ag4
(I4416
I192
I32
I32
tp690
Rp691
ag4
(I4448
I192
I32
I32
tp692
Rp693
ag4
(I4480
I192
I32
I32
tp694
Rp695
ag4
(I4512
I192
I32
I32
tp696
Rp697
ag4
(I4544
I192
I32
I32
tp698
Rp699
ag4
(I4576
I192
I32
I32
tp700
Rp701
ag4
(I4704
I192
I32
I32
tp702
Rp703
ag4
(I5056
I192
I32
I32
tp704
Rp705
ag4
(I5088
I192
I32
I32
tp706
Rp707
ag4
(I5120
I192
I32
I32
tp708
Rp709
ag4
(I5152
I192
I32
I32
tp710
Rp711
ag4
(I5184
I192
I32
I32
tp712
Rp713
ag4
(I5216
I192
I32
I32
tp714
Rp715
ag4
(I5248
I192
I32
I32
tp716
Rp717
ag4
(I5280
I192
I32
I32
tp718
Rp719
ag4
(I5312
I192
I32
I32
tp720
Rp721
ag4
(I5344
I192
I32
I32
tp722
Rp723
ag4
(I5376
I192
I32
I32
tp724
Rp725
ag4
(I5408
I192
I32
I32
tp726
Rp727
ag4
(I5472
I192
I32
I32
tp728
Rp729
ag4
(I5632
I192
I32
I32
tp730
Rp731
ag4
(I5664
I192
I32
I32
tp732
Rp733
ag4
(I5728
I192
I32
I32
tp734
Rp735
ag4
(I0
I224
I32
I32
tp736
Rp737
ag4
(I1568
I224
I32
I32
tp738
Rp739
ag4
(I1632
I224
I32
I32
tp740
Rp741
ag4
(I2656
I224
I32
I32
tp742
Rp743
ag4
(I3104
I224
I32
I32
tp744
Rp745
ag4
(I3392
I224
I32
I32
tp746
Rp747
ag4
(I3552
I224
I32
I32
tp748
Rp749
ag4
(I3872
I224
I32
I32
tp750
Rp751
ag4
(I3904
I224
I32
I32
tp752
Rp753
ag4
(I3936
I224
I32
I32
tp754
Rp755
ag4
(I4192
I224
I32
I32
tp756
Rp757
ag4
(I4576
I224
I32
I32
tp758
Rp759
ag4
(I4704
I224
I32
I32
tp760
Rp761
ag4
(I4800
I224
I32
I32
tp762
Rp763
ag4
(I5056
I224
I32
I32
tp764
Rp765
ag4
(I5408
I224
I32
I32
tp766
Rp767
ag4
(I5440
I224
I32
I32
tp768
Rp769
ag4
(I5472
I224
I32
I32
tp770
Rp771
ag4
(I5536
I224
I32
I32
tp772
Rp773
ag4
(I5568
I224
I32
I32
tp774
Rp775
ag4
(I5728
I224
I32
I32
tp776
Rp777
ag4
(I0
I256
I32
I32
tp778
Rp779
ag4
(I1184
I256
I32
I32
tp780
Rp781
ag4
(I1216
I256
I32
I32
tp782
Rp783
ag4
(I1568
I256
I32
I32
tp784
Rp785
ag4
(I1632
I256
I32
I32
tp786
Rp787
ag4
(I2624
I256
I32
I32
tp788
Rp789
ag4
(I2656
I256
I32
I32
tp790
Rp791
ag4
(I3936
I256
I32
I32
tp792
Rp793
ag4
(I4000
I256
I32
I32
tp794
Rp795
ag4
(I4032
I256
I32
I32
tp796
Rp797
ag4
(I4064
I256
I32
I32
tp798
Rp799
ag4
(I4096
I256
I32
I32
tp800
Rp801
ag4
(I4128
I256
I32
I32
tp802
Rp803
ag4
(I4192
I256
I32
I32
tp804
Rp805
ag4
(I4224
I256
I32
I32
tp806
Rp807
ag4
(I4256
I256
I32
I32
tp808
Rp809
ag4
(I4288
I256
I32
I32
tp810
Rp811
ag4
(I4320
I256
I32
I32
tp812
Rp813
ag4
(I4352
I256
I32
I32
tp814
Rp815
ag4
(I4384
I256
I32
I32
tp816
Rp817
ag4
(I4416
I256
I32
I32
tp818
Rp819
ag4
(I4448
I256
I32
I32
tp820
Rp821
ag4
(I4480
I256
I32
I32
tp822
Rp823
ag4
(I4576
I256
I32
I32
tp824
Rp825
ag4
(I4608
I256
I32
I32
tp826
Rp827
ag4
(I4704
I256
I32
I32
tp828
Rp829
ag4
(I4800
I256
I32
I32
tp830
Rp831
ag4
(I4832
I256
I32
I32
tp832
Rp833
ag4
(I4864
I256
I32
I32
tp834
Rp835
ag4
(I4896
I256
I32
I32
tp836
Rp837
ag4
(I4928
I256
I32
I32
tp838
Rp839
ag4
(I4960
I256
I32
I32
tp840
Rp841
ag4
(I4992
I256
I32
I32
tp842
Rp843
ag4
(I5024
I256
I32
I32
tp844
Rp845
ag4
(I5056
I256
I32
I32
tp846
Rp847
ag4
(I5120
I256
I32
I32
tp848
Rp849
ag4
(I5152
I256
I32
I32
tp850
Rp851
ag4
(I5184
I256
I32
I32
tp852
Rp853
ag4
(I5216
I256
I32
I32
tp854
Rp855
ag4
(I5248
I256
I32
I32
tp856
Rp857
ag4
(I5280
I256
I32
I32
tp858
Rp859
ag4
(I5312
I256
I32
I32
tp860
Rp861
ag4
(I5344
I256
I32
I32
tp862
Rp863
ag4
(I5536
I256
I32
I32
tp864
Rp865
ag4
(I5568
I256
I32
I32
tp866
Rp867
ag4
(I5600
I256
I32
I32
tp868
Rp869
ag4
(I5632
I256
I32
I32
tp870
Rp871
ag4
(I5664
I256
I32
I32
tp872
Rp873
ag4
(I5696
I256
I32
I32
tp874
Rp875
ag4
(I5728
I256
I32
I32
tp876
Rp877
ag4
(I0
I288
I32
I32
tp878
Rp879
ag4
(I224
I288
I32
I32
tp880
Rp881
ag4
(I256
I288
I32
I32
tp882
Rp883
ag4
(I288
I288
I32
I32
tp884
Rp885
ag4
(I416
I288
I32
I32
tp886
Rp887
ag4
(I448
I288
I32
I32
tp888
Rp889
ag4
(I1184
I288
I32
I32
tp890
Rp891
ag4
(I1216
I288
I32
I32
tp892
Rp893
ag4
(I1568
I288
I32
I32
tp894
Rp895
ag4
(I1632
I288
I32
I32
tp896
Rp897
ag4
(I2496
I288
I32
I32
tp898
Rp899
ag4
(I2528
I288
I32
I32
tp900
Rp901
ag4
(I2560
I288
I32
I32
tp902
Rp903
ag4
(I2592
I288
I32
I32
tp904
Rp905
ag4
(I2624
I288
I32
I32
tp906
Rp907
ag4
(I2656
I288
I32
I32
tp908
Rp909
ag4
(I3712
I288
I32
I32
tp910
Rp911
ag4
(I3872
I288
I32
I32
tp912
Rp913
ag4
(I3936
I288
I32
I32
tp914
Rp915
ag4
(I4000
I288
I32
I32
tp916
Rp917
ag4
(I4032
I288
I32
I32
tp918
Rp919
ag4
(I4064
I288
I32
I32
tp920
Rp921
ag4
(I4096
I288
I32
I32
tp922
Rp923
ag4
(I4128
I288
I32
I32
tp924
Rp925
ag4
(I4288
I288
I32
I32
tp926
Rp927
ag4
(I4576
I288
I32
I32
tp928
Rp929
ag4
(I4704
I288
I32
I32
tp930
Rp931
ag4
(I4736
I288
I32
I32
tp932
Rp933
ag4
(I4800
I288
I32
I32
tp934
Rp935
ag4
(I5056
I288
I32
I32
tp936
Rp937
ag4
(I5344
I288
I32
I32
tp938
Rp939
ag4
(I5376
I288
I32
I32
tp940
Rp941
ag4
(I5408
I288
I32
I32
tp942
Rp943
ag4
(I5440
I288
I32
I32
tp944
Rp945
ag4
(I5472
I288
I32
I32
tp946
Rp947
ag4
(I5504
I288
I32
I32
tp948
Rp949
ag4
(I5536
I288
I32
I32
tp950
Rp951
ag4
(I5568
I288
I32
I32
tp952
Rp953
ag4
(I5600
I288
I32
I32
tp954
Rp955
ag4
(I5632
I288
I32
I32
tp956
Rp957
ag4
(I5664
I288
I32
I32
tp958
Rp959
ag4
(I5696
I288
I32
I32
tp960
Rp961
ag4
(I5728
I288
I32
I32
tp962
Rp963
ag4
(I0
I320
I32
I32
tp964
Rp965
ag4
(I416
I320
I32
I32
tp966
Rp967
ag4
(I448
I320
I32
I32
tp968
Rp969
ag4
(I480
I320
I32
I32
tp970
Rp971
ag4
(I512
I320
I32
I32
tp972
Rp973
ag4
(I928
I320
I32
I32
tp974
Rp975
ag4
(I960
I320
I32
I32
tp976
Rp977
ag4
(I992
I320
I32
I32
tp978
Rp979
ag4
(I1024
I320
I32
I32
tp980
Rp981
ag4
(I1056
I320
I32
I32
tp982
Rp983
ag4
(I1184
I320
I32
I32
tp984
Rp985
ag4
(I1216
I320
I32
I32
tp986
Rp987
ag4
(I1248
I320
I32
I32
tp988
Rp989
ag4
(I1280
I320
I32
I32
tp990
Rp991
ag4
(I1312
I320
I32
I32
tp992
Rp993
ag4
(I1344
I320
I32
I32
tp994
Rp995
ag4
(I1376
I320
I32
I32
tp996
Rp997
ag4
(I1408
I320
I32
I32
tp998
Rp999
ag4
(I1440
I320
I32
I32
tp1000
Rp1001
ag4
(I1472
I320
I32
I32
tp1002
Rp1003
ag4
(I1504
I320
I32
I32
tp1004
Rp1005
ag4
(I1536
I320
I32
I32
tp1006
Rp1007
ag4
(I1568
I320
I32
I32
tp1008
Rp1009
ag4
(I1632
I320
I32
I32
tp1010
Rp1011
ag4
(I2368
I320
I32
I32
tp1012
Rp1013
ag4
(I2400
I320
I32
I32
tp1014
Rp1015
ag4
(I2432
I320
I32
I32
tp1016
Rp1017
ag4
(I2464
I320
I32
I32
tp1018
Rp1019
ag4
(I2496
I320
I32
I32
tp1020
Rp1021
ag4
(I2656
I320
I32
I32
tp1022
Rp1023
ag4
(I2944
I320
I32
I32
tp1024
Rp1025
ag4
(I2976
I320
I32
I32
tp1026
Rp1027
ag4
(I3392
I320
I32
I32
tp1028
Rp1029
ag4
(I3872
I320
I32
I32
tp1030
Rp1031
ag4
(I4128
I320
I32
I32
tp1032
Rp1033
ag4
(I4160
I320
I32
I32
tp1034
Rp1035
ag4
(I4192
I320
I32
I32
tp1036
Rp1037
ag4
(I4224
I320
I32
I32
tp1038
Rp1039
ag4
(I4288
I320
I32
I32
tp1040
Rp1041
ag4
(I4352
I320
I32
I32
tp1042
Rp1043
ag4
(I4384
I320
I32
I32
tp1044
Rp1045
ag4
(I4416
I320
I32
I32
tp1046
Rp1047
ag4
(I4448
I320
I32
I32
tp1048
Rp1049
ag4
(I4480
I320
I32
I32
tp1050
Rp1051
ag4
(I4512
I320
I32
I32
tp1052
Rp1053
ag4
(I4544
I320
I32
I32
tp1054
Rp1055
ag4
(I4576
I320
I32
I32
tp1056
Rp1057
ag4
(I4672
I320
I32
I32
tp1058
Rp1059
ag4
(I4704
I320
I32
I32
tp1060
Rp1061
ag4
(I4800
I320
I32
I32
tp1062
Rp1063
ag4
(I4864
I320
I32
I32
tp1064
Rp1065
ag4
(I4896
I320
I32
I32
tp1066
Rp1067
ag4
(I4928
I320
I32
I32
tp1068
Rp1069
ag4
(I4960
I320
I32
I32
tp1070
Rp1071
ag4
(I4992
I320
I32
I32
tp1072
Rp1073
ag4
(I5056
I320
I32
I32
tp1074
Rp1075
ag4
(I5088
I320
I32
I32
tp1076
Rp1077
ag4
(I5120
I320
I32
I32
tp1078
Rp1079
ag4
(I5152
I320
I32
I32
tp1080
Rp1081
ag4
(I5184
I320
I32
I32
tp1082
Rp1083
ag4
(I5216
I320
I32
I32
tp1084
Rp1085
ag4
(I5248
I320
I32
I32
tp1086
Rp1087
ag4
(I5280
I320
I32
I32
tp1088
Rp1089
ag4
(I5344
I320
I32
I32
tp1090
Rp1091
ag4
(I5728
I320
I32
I32
tp1092
Rp1093
ag4
(I0
I352
I32
I32
tp1094
Rp1095
ag4
(I32
I352
I32
I32
tp1096
Rp1097
ag4
(I64
I352
I32
I32
tp1098
Rp1099
ag4
(I96
I352
I32
I32
tp1100
Rp1101
ag4
(I416
I352
I32
I32
tp1102
Rp1103
ag4
(I512
I352
I32
I32
tp1104
Rp1105
ag4
(I544
I352
I32
I32
tp1106
Rp1107
ag4
(I576
I352
I32
I32
tp1108
Rp1109
ag4
(I1568
I352
I32
I32
tp1110
Rp1111
ag4
(I1632
I352
I32
I32
tp1112
Rp1113
ag4
(I2240
I352
I32
I32
tp1114
Rp1115
ag4
(I2272
I352
I32
I32
tp1116
Rp1117
ag4
(I2368
I352
I32
I32
tp1118
Rp1119
ag4
(I2656
I352
I32
I32
tp1120
Rp1121
ag4
(I3872
I352
I32
I32
tp1122
Rp1123
ag4
(I3904
I352
I32
I32
tp1124
Rp1125
ag4
(I3936
I352
I32
I32
tp1126
Rp1127
ag4
(I3968
I352
I32
I32
tp1128
Rp1129
ag4
(I4000
I352
I32
I32
tp1130
Rp1131
ag4
(I4032
I352
I32
I32
tp1132
Rp1133
ag4
(I4064
I352
I32
I32
tp1134
Rp1135
ag4
(I4096
I352
I32
I32
tp1136
Rp1137
ag4
(I4128
I352
I32
I32
tp1138
Rp1139
ag4
(I4160
I352
I32
I32
tp1140
Rp1141
ag4
(I4288
I352
I32
I32
tp1142
Rp1143
ag4
(I4544
I352
I32
I32
tp1144
Rp1145
ag4
(I4576
I352
I32
I32
tp1146
Rp1147
ag4
(I4704
I352
I32
I32
tp1148
Rp1149
ag4
(I4864
I352
I32
I32
tp1150
Rp1151
ag4
(I4992
I352
I32
I32
tp1152
Rp1153
ag4
(I5280
I352
I32
I32
tp1154
Rp1155
ag4
(I5344
I352
I32
I32
tp1156
Rp1157
ag4
(I5728
I352
I32
I32
tp1158
Rp1159
ag4
(I0
I384
I32
I32
tp1160
Rp1161
ag4
(I416
I384
I32
I32
tp1162
Rp1163
ag4
(I576
I384
I32
I32
tp1164
Rp1165
ag4
(I1568
I384
I32
I32
tp1166
Rp1167
ag4
(I1632
I384
I32
I32
tp1168
Rp1169
ag4
(I2048
I384
I32
I32
tp1170
Rp1171
ag4
(I2080
I384
I32
I32
tp1172
Rp1173
ag4
(I2112
I384
I32
I32
tp1174
Rp1175
ag4
(I2144
I384
I32
I32
tp1176
Rp1177
ag4
(I2368
I384
I32
I32
tp1178
Rp1179
ag4
(I2656
I384
I32
I32
tp1180
Rp1181
ag4
(I2848
I384
I32
I32
tp1182
Rp1183
ag4
(I3232
I384
I32
I32
tp1184
Rp1185
ag4
(I3584
I384
I32
I32
tp1186
Rp1187
ag4
(I3840
I384
I32
I32
tp1188
Rp1189
ag4
(I3872
I384
I32
I32
tp1190
Rp1191
ag4
(I4160
I384
I32
I32
tp1192
Rp1193
ag4
(I4224
I384
I32
I32
tp1194
Rp1195
ag4
(I4256
I384
I32
I32
tp1196
Rp1197
ag4
(I4288
I384
I32
I32
tp1198
Rp1199
ag4
(I4320
I384
I32
I32
tp1200
Rp1201
ag4
(I4352
I384
I32
I32
tp1202
Rp1203
ag4
(I4384
I384
I32
I32
tp1204
Rp1205
ag4
(I4416
I384
I32
I32
tp1206
Rp1207
ag4
(I4448
I384
I32
I32
tp1208
Rp1209
ag4
(I4480
I384
I32
I32
tp1210
Rp1211
ag4
(I4544
I384
I32
I32
tp1212
Rp1213
ag4
(I4576
I384
I32
I32
tp1214
Rp1215
ag4
(I4704
I384
I32
I32
tp1216
Rp1217
ag4
(I4736
I384
I32
I32
tp1218
Rp1219
ag4
(I4768
I384
I32
I32
tp1220
Rp1221
ag4
(I4800
I384
I32
I32
tp1222
Rp1223
ag4
(I4832
I384
I32
I32
tp1224
Rp1225
ag4
(I4864
I384
I32
I32
tp1226
Rp1227
ag4
(I4928
I384
I32
I32
tp1228
Rp1229
ag4
(I4992
I384
I32
I32
tp1230
Rp1231
ag4
(I5024
I384
I32
I32
tp1232
Rp1233
ag4
(I5056
I384
I32
I32
tp1234
Rp1235
ag4
(I5088
I384
I32
I32
tp1236
Rp1237
ag4
(I5120
I384
I32
I32
tp1238
Rp1239
ag4
(I5152
I384
I32
I32
tp1240
Rp1241
ag4
(I5184
I384
I32
I32
tp1242
Rp1243
ag4
(I5216
I384
I32
I32
tp1244
Rp1245
ag4
(I5280
I384
I32
I32
tp1246
Rp1247
ag4
(I5344
I384
I32
I32
tp1248
Rp1249
ag4
(I5728
I384
I32
I32
tp1250
Rp1251
ag4
(I0
I416
I32
I32
tp1252
Rp1253
ag4
(I416
I416
I32
I32
tp1254
Rp1255
ag4
(I576
I416
I32
I32
tp1256
Rp1257
ag4
(I608
I416
I32
I32
tp1258
Rp1259
ag4
(I640
I416
I32
I32
tp1260
Rp1261
ag4
(I672
I416
I32
I32
tp1262
Rp1263
ag4
(I704
I416
I32
I32
tp1264
Rp1265
ag4
(I736
I416
I32
I32
tp1266
Rp1267
ag4
(I768
I416
I32
I32
tp1268
Rp1269
ag4
(I800
I416
I32
I32
tp1270
Rp1271
ag4
(I832
I416
I32
I32
tp1272
Rp1273
ag4
(I864
I416
I32
I32
tp1274
Rp1275
ag4
(I896
I416
I32
I32
tp1276
Rp1277
ag4
(I928
I416
I32
I32
tp1278
Rp1279
ag4
(I960
I416
I32
I32
tp1280
Rp1281
ag4
(I992
I416
I32
I32
tp1282
Rp1283
ag4
(I1024
I416
I32
I32
tp1284
Rp1285
ag4
(I1056
I416
I32
I32
tp1286
Rp1287
ag4
(I1088
I416
I32
I32
tp1288
Rp1289
ag4
(I1120
I416
I32
I32
tp1290
Rp1291
ag4
(I1152
I416
I32
I32
tp1292
Rp1293
ag4
(I1568
I416
I32
I32
tp1294
Rp1295
ag4
(I1632
I416
I32
I32
tp1296
Rp1297
ag4
(I2048
I416
I32
I32
tp1298
Rp1299
ag4
(I2144
I416
I32
I32
tp1300
Rp1301
ag4
(I2368
I416
I32
I32
tp1302
Rp1303
ag4
(I2656
I416
I32
I32
tp1304
Rp1305
ag4
(I2848
I416
I32
I32
tp1306
Rp1307
ag4
(I3232
I416
I32
I32
tp1308
Rp1309
ag4
(I3584
I416
I32
I32
tp1310
Rp1311
ag4
(I3840
I416
I32
I32
tp1312
Rp1313
ag4
(I4160
I416
I32
I32
tp1314
Rp1315
ag4
(I4544
I416
I32
I32
tp1316
Rp1317
ag4
(I4576
I416
I32
I32
tp1318
Rp1319
ag4
(I4928
I416
I32
I32
tp1320
Rp1321
ag4
(I5280
I416
I32
I32
tp1322
Rp1323
ag4
(I5728
I416
I32
I32
tp1324
Rp1325
ag4
(I0
I448
I32
I32
tp1326
Rp1327
ag4
(I32
I448
I32
I32
tp1328
Rp1329
ag4
(I64
I448
I32
I32
tp1330
Rp1331
ag4
(I96
I448
I32
I32
tp1332
Rp1333
ag4
(I128
I448
I32
I32
tp1334
Rp1335
ag4
(I160
I448
I32
I32
tp1336
Rp1337
ag4
(I192
I448
I32
I32
tp1338
Rp1339
ag4
(I224
I448
I32
I32
tp1340
Rp1341
ag4
(I256
I448
I32
I32
tp1342
Rp1343
ag4
(I288
I448
I32
I32
tp1344
Rp1345
ag4
(I320
I448
I32
I32
tp1346
Rp1347
ag4
(I352
I448
I32
I32
tp1348
Rp1349
ag4
(I384
I448
I32
I32
tp1350
Rp1351
ag4
(I416
I448
I32
I32
tp1352
Rp1353
ag4
(I1152
I448
I32
I32
tp1354
Rp1355
ag4
(I1184
I448
I32
I32
tp1356
Rp1357
ag4
(I1216
I448
I32
I32
tp1358
Rp1359
ag4
(I1248
I448
I32
I32
tp1360
Rp1361
ag4
(I1280
I448
I32
I32
tp1362
Rp1363
ag4
(I1312
I448
I32
I32
tp1364
Rp1365
ag4
(I1344
I448
I32
I32
tp1366
Rp1367
ag4
(I1376
I448
I32
I32
tp1368
Rp1369
ag4
(I1408
I448
I32
I32
tp1370
Rp1371
ag4
(I1440
I448
I32
I32
tp1372
Rp1373
ag4
(I1472
I448
I32
I32
tp1374
Rp1375
ag4
(I1504
I448
I32
I32
tp1376
Rp1377
ag4
(I1536
I448
I32
I32
tp1378
Rp1379
ag4
(I1568
I448
I32
I32
tp1380
Rp1381
ag4
(I1632
I448
I32
I32
tp1382
Rp1383
ag4
(I1664
I448
I32
I32
tp1384
Rp1385
ag4
(I1696
I448
I32
I32
tp1386
Rp1387
ag4
(I1728
I448
I32
I32
tp1388
Rp1389
ag4
(I1760
I448
I32
I32
tp1390
Rp1391
ag4
(I1792
I448
I32
I32
tp1392
Rp1393
ag4
(I1824
I448
I32
I32
tp1394
Rp1395
ag4
(I1856
I448
I32
I32
tp1396
Rp1397
ag4
(I1888
I448
I32
I32
tp1398
Rp1399
ag4
(I1920
I448
I32
I32
tp1400
Rp1401
ag4
(I1952
I448
I32
I32
tp1402
Rp1403
ag4
(I1984
I448
I32
I32
tp1404
Rp1405
ag4
(I2016
I448
I32
I32
tp1406
Rp1407
ag4
(I2048
I448
I32
I32
tp1408
Rp1409
ag4
(I2144
I448
I32
I32
tp1410
Rp1411
ag4
(I2176
I448
I32
I32
tp1412
Rp1413
ag4
(I2208
I448
I32
I32
tp1414
Rp1415
ag4
(I2240
I448
I32
I32
tp1416
Rp1417
ag4
(I2272
I448
I32
I32
tp1418
Rp1419
ag4
(I2304
I448
I32
I32
tp1420
Rp1421
ag4
(I2336
I448
I32
I32
tp1422
Rp1423
ag4
(I2368
I448
I32
I32
tp1424
Rp1425
ag4
(I2656
I448
I32
I32
tp1426
Rp1427
ag4
(I2688
I448
I32
I32
tp1428
Rp1429
ag4
(I2720
I448
I32
I32
tp1430
Rp1431
ag4
(I2752
I448
I32
I32
tp1432
Rp1433
ag4
(I2784
I448
I32
I32
tp1434
Rp1435
ag4
(I2816
I448
I32
I32
tp1436
Rp1437
ag4
(I2848
I448
I32
I32
tp1438
Rp1439
ag4
(I2880
I448
I32
I32
tp1440
Rp1441
ag4
(I2912
I448
I32
I32
tp1442
Rp1443
ag4
(I2944
I448
I32
I32
tp1444
Rp1445
ag4
(I2976
I448
I32
I32
tp1446
Rp1447
ag4
(I3008
I448
I32
I32
tp1448
Rp1449
ag4
(I3040
I448
I32
I32
tp1450
Rp1451
ag4
(I3072
I448
I32
I32
tp1452
Rp1453
ag4
(I3104
I448
I32
I32
tp1454
Rp1455
ag4
(I3136
I448
I32
I32
tp1456
Rp1457
ag4
(I3168
I448
I32
I32
tp1458
Rp1459
ag4
(I3200
I448
I32
I32
tp1460
Rp1461
ag4
(I3232
I448
I32
I32
tp1462
Rp1463
ag4
(I3264
I448
I32
I32
tp1464
Rp1465
ag4
(I3296
I448
I32
I32
tp1466
Rp1467
ag4
(I3328
I448
I32
I32
tp1468
Rp1469
ag4
(I3360
I448
I32
I32
tp1470
Rp1471
ag4
(I3392
I448
I32
I32
tp1472
Rp1473
ag4
(I3424
I448
I32
I32
tp1474
Rp1475
ag4
(I3456
I448
I32
I32
tp1476
Rp1477
ag4
(I3488
I448
I32
I32
tp1478
Rp1479
ag4
(I3520
I448
I32
I32
tp1480
Rp1481
ag4
(I3552
I448
I32
I32
tp1482
Rp1483
ag4
(I3584
I448
I32
I32
tp1484
Rp1485
ag4
(I3616
I448
I32
I32
tp1486
Rp1487
ag4
(I3648
I448
I32
I32
tp1488
Rp1489
ag4
(I3680
I448
I32
I32
tp1490
Rp1491
ag4
(I3712
I448
I32
I32
tp1492
Rp1493
ag4
(I3744
I448
I32
I32
tp1494
Rp1495
ag4
(I3776
I448
I32
I32
tp1496
Rp1497
ag4
(I3808
I448
I32
I32
tp1498
Rp1499
ag4
(I3840
I448
I32
I32
tp1500
Rp1501
ag4
(I4160
I448
I32
I32
tp1502
Rp1503
ag4
(I4192
I448
I32
I32
tp1504
Rp1505
ag4
(I4224
I448
I32
I32
tp1506
Rp1507
ag4
(I4256
I448
I32
I32
tp1508
Rp1509
ag4
(I4288
I448
I32
I32
tp1510
Rp1511
ag4
(I4320
I448
I32
I32
tp1512
Rp1513
ag4
(I4352
I448
I32
I32
tp1514
Rp1515
ag4
(I4384
I448
I32
I32
tp1516
Rp1517
ag4
(I4416
I448
I32
I32
tp1518
Rp1519
ag4
(I4448
I448
I32
I32
tp1520
Rp1521
ag4
(I4480
I448
I32
I32
tp1522
Rp1523
ag4
(I4512
I448
I32
I32
tp1524
Rp1525
ag4
(I4544
I448
I32
I32
tp1526
Rp1527
ag4
(I4576
I448
I32
I32
tp1528
Rp1529
ag4
(I4608
I448
I32
I32
tp1530
Rp1531
ag4
(I4640
I448
I32
I32
tp1532
Rp1533
ag4
(I4672
I448
I32
I32
tp1534
Rp1535
ag4
(I4704
I448
I32
I32
tp1536
Rp1537
ag4
(I4736
I448
I32
I32
tp1538
Rp1539
ag4
(I4768
I448
I32
I32
tp1540
Rp1541
ag4
(I4800
I448
I32
I32
tp1542
Rp1543
ag4
(I4832
I448
I32
I32
tp1544
Rp1545
ag4
(I4864
I448
I32
I32
tp1546
Rp1547
ag4
(I4896
I448
I32
I32
tp1548
Rp1549
ag4
(I4928
I448
I32
I32
tp1550
Rp1551
ag4
(I4960
I448
I32
I32
tp1552
Rp1553
ag4
(I4992
I448
I32
I32
tp1554
Rp1555
ag4
(I5024
I448
I32
I32
tp1556
Rp1557
ag4
(I5056
I448
I32
I32
tp1558
Rp1559
ag4
(I5088
I448
I32
I32
tp1560
Rp1561
ag4
(I5120
I448
I32
I32
tp1562
Rp1563
ag4
(I5152
I448
I32
I32
tp1564
Rp1565
ag4
(I5184
I448
I32
I32
tp1566
Rp1567
ag4
(I5216
I448
I32
I32
tp1568
Rp1569
ag4
(I5248
I448
I32
I32
tp1570
Rp1571
ag4
(I5280
I448
I32
I32
tp1572
Rp1573
ag4
(I5312
I448
I32
I32
tp1574
Rp1575
ag4
(I5344
I448
I32
I32
tp1576
Rp1577
ag4
(I5376
I448
I32
I32
tp1578
Rp1579
ag4
(I5408
I448
I32
I32
tp1580
Rp1581
ag4
(I5440
I448
I32
I32
tp1582
Rp1583
ag4
(I5472
I448
I32
I32
tp1584
Rp1585
ag4
(I5504
I448
I32
I32
tp1586
Rp1587
ag4
(I5536
I448
I32
I32
tp1588
Rp1589
ag4
(I5568
I448
I32
I32
tp1590
Rp1591
ag4
(I5600
I448
I32
I32
tp1592
Rp1593
ag4
(I5632
I448
I32
I32
tp1594
Rp1595
ag4
(I5664
I448
I32
I32
tp1596
Rp1597
ag4
(I5696
I448
I32
I32
tp1598
Rp1599
ag4
(I5728
I448
I32
I32
tp1600
Rp1601
asS'checkpoints'
p1602
(lp1603
g4
(I3936
I320
I32
I32
tp1604
Rp1605
ag4
(I1856
I416
I32
I32
tp1606
Rp1607
asS'hazardSplatters'
p1608
(lp1609
sS'splatters'
p1610
(lp1611
sS'enemies'
p1612
(lp1613
sS'size'
p1614
(I5760
I480
tp1615
sb.