(ilevelModule
Level
p0
(dp1
S'index'
p2
I3
sS'goal'
p3
cpygame
__rect_constructor
p4
(I3072
I2816
I32
I32
tp5
Rp6
sS'paintBalls'
p7
(lp8
sS'messages'
p9
(lp10
(S'Day 3'
p11
(I45
I2575
tp12
tp13
a(S'Welcome back to'
p14
(I1000
I2670
tp15
tp16
a(S'White World'
p17
(I1000
I2715
tp18
tp19
a(S'Please excuse our appearance while we complete renovations'
p20
(I788
I1580
tp21
tp22
a(S"They won't let me go"
p23
(I2000
I1360
tp24
tp25
a(S'We seem to be experiencing...'
p26
(I70
I1170
tp27
tp28
a(S'...technical difficulties'
p29
(I160
I810
tp30
tp31
a(S'Visit our Gift Shop'
p32
(I1740
I45
tp33
tp34
a(S'Help me'
p35
(I2825
I1990
tp36
tp37
a(S'Please visit us again'
p38
(I2730
I2500
tp39
tp40
asS'hazards'
p41
(lp42
g4
(I1184
I96
I32
I32
tp43
Rp44
ag4
(I1216
I96
I32
I32
tp45
Rp46
ag4
(I1792
I96
I32
I32
tp47
Rp48
ag4
(I1280
I256
I32
I32
tp49
Rp50
ag4
(I1312
I256
I32
I32
tp51
Rp52
ag4
(I1408
I256
I32
I32
tp53
Rp54
ag4
(I1440
I256
I32
I32
tp55
Rp56
ag4
(I1376
I384
I32
I32
tp57
Rp58
ag4
(I1376
I416
I32
I32
tp59
Rp60
ag4
(I992
I576
I32
I32
tp61
Rp62
ag4
(I1088
I576
I32
I32
tp63
Rp64
ag4
(I1184
I576
I32
I32
tp65
Rp66
ag4
(I1280
I576
I32
I32
tp67
Rp68
ag4
(I1376
I576
I32
I32
tp69
Rp70
ag4
(I1472
I576
I32
I32
tp71
Rp72
ag4
(I1568
I576
I32
I32
tp73
Rp74
ag4
(I1184
I736
I32
I32
tp75
Rp76
ag4
(I1472
I736
I32
I32
tp77
Rp78
ag4
(I1056
I832
I32
I32
tp79
Rp80
ag4
(I1536
I832
I32
I32
tp81
Rp82
ag4
(I1120
I864
I32
I32
tp83
Rp84
ag4
(I1536
I864
I32
I32
tp85
Rp86
ag4
(I1184
I896
I32
I32
tp87
Rp88
ag4
(I1536
I896
I32
I32
tp89
Rp90
ag4
(I1952
I928
I32
I32
tp91
Rp92
ag4
(I1984
I928
I32
I32
tp93
Rp94
ag4
(I2016
I928
I32
I32
tp95
Rp96
ag4
(I2048
I928
I32
I32
tp97
Rp98
ag4
(I2080
I928
I32
I32
tp99
Rp100
ag4
(I2112
I928
I32
I32
tp101
Rp102
ag4
(I2144
I928
I32
I32
tp103
Rp104
ag4
(I1184
I960
I32
I32
tp105
Rp106
ag4
(I1216
I960
I32
I32
tp107
Rp108
ag4
(I1248
I960
I32
I32
tp109
Rp110
ag4
(I1280
I960
I32
I32
tp111
Rp112
ag4
(I1312
I960
I32
I32
tp113
Rp114
ag4
(I1184
I1056
I32
I32
tp115
Rp116
ag4
(I1248
I1056
I32
I32
tp117
Rp118
ag4
(I1312
I1056
I32
I32
tp119
Rp120
ag4
(I2112
I1120
I32
I32
tp121
Rp122
ag4
(I2144
I1120
I32
I32
tp123
Rp124
ag4
(I2176
I1120
I32
I32
tp125
Rp126
ag4
(I2208
I1120
I32
I32
tp127
Rp128
ag4
(I2240
I1120
I32
I32
tp129
Rp130
ag4
(I2272
I1120
I32
I32
tp131
Rp132
ag4
(I2304
I1120
I32
I32
tp133
Rp134
ag4
(I2336
I1120
I32
I32
tp135
Rp136
ag4
(I2368
I1120
I32
I32
tp137
Rp138
ag4
(I2400
I1120
I32
I32
tp139
Rp140
ag4
(I2432
I1120
I32
I32
tp141
Rp142
ag4
(I2464
I1120
I32
I32
tp143
Rp144
ag4
(I2496
I1120
I32
I32
tp145
Rp146
ag4
(I2528
I1120
I32
I32
tp147
Rp148
ag4
(I2560
I1120
I32
I32
tp149
Rp150
ag4
(I2592
I1120
I32
I32
tp151
Rp152
ag4
(I2624
I1120
I32
I32
tp153
Rp154
ag4
(I2656
I1120
I32
I32
tp155
Rp156
ag4
(I2688
I1120
I32
I32
tp157
Rp158
ag4
(I2720
I1120
I32
I32
tp159
Rp160
ag4
(I2752
I1120
I32
I32
tp161
Rp162
ag4
(I2784
I1120
I32
I32
tp163
Rp164
ag4
(I2816
I1120
I32
I32
tp165
Rp166
ag4
(I2848
I1120
I32
I32
tp167
Rp168
ag4
(I2880
I1120
I32
I32
tp169
Rp170
ag4
(I2912
I1120
I32
I32
tp171
Rp172
ag4
(I2944
I1120
I32
I32
tp173
Rp174
ag4
(I2976
I1120
I32
I32
tp175
Rp176
ag4
(I3008
I1120
I32
I32
tp177
Rp178
ag4
(I3040
I1120
I32
I32
tp179
Rp180
ag4
(I3072
I1120
I32
I32
tp181
Rp182
ag4
(I3104
I1120
I32
I32
tp183
Rp184
ag4
(I3136
I1120
I32
I32
tp185
Rp186
ag4
(I1248
I1152
I32
I32
tp187
Rp188
ag4
(I1248
I1184
I32
I32
tp189
Rp190
ag4
(I1248
I1216
I32
I32
tp191
Rp192
ag4
(I1504
I1440
I32
I32
tp193
Rp194
ag4
(I2048
I1472
I32
I32
tp195
Rp196
ag4
(I2112
I1504
I32
I32
tp197
Rp198
ag4
(I2176
I1536
I32
I32
tp199
Rp200
ag4
(I2176
I1568
I32
I32
tp201
Rp202
ag4
(I1152
I1696
I32
I32
tp203
Rp204
ag4
(I1184
I1696
I32
I32
tp205
Rp206
ag4
(I1248
I1696
I32
I32
tp207
Rp208
ag4
(I1280
I1696
I32
I32
tp209
Rp210
ag4
(I640
I1856
I32
I32
tp211
Rp212
ag4
(I608
I1888
I32
I32
tp213
Rp214
ag4
(I576
I1920
I32
I32
tp215
Rp216
ag4
(I544
I1952
I32
I32
tp217
Rp218
ag4
(I928
I1952
I32
I32
tp219
Rp220
ag4
(I960
I1952
I32
I32
tp221
Rp222
ag4
(I1216
I1952
I32
I32
tp223
Rp224
ag4
(I1248
I1952
I32
I32
tp225
Rp226
ag4
(I1280
I1952
I32
I32
tp227
Rp228
ag4
(I1440
I1952
I32
I32
tp229
Rp230
ag4
(I1472
I1952
I32
I32
tp231
Rp232
ag4
(I1504
I1952
I32
I32
tp233
Rp234
ag4
(I1536
I1952
I32
I32
tp235
Rp236
ag4
(I1568
I1952
I32
I32
tp237
Rp238
ag4
(I1600
I1952
I32
I32
tp239
Rp240
ag4
(I1632
I1952
I32
I32
tp241
Rp242
ag4
(I1664
I1952
I32
I32
tp243
Rp244
ag4
(I1696
I1952
I32
I32
tp245
Rp246
ag4
(I1728
I1952
I32
I32
tp247
Rp248
ag4
(I1760
I1952
I32
I32
tp249
Rp250
ag4
(I1792
I1952
I32
I32
tp251
Rp252
ag4
(I1824
I1952
I32
I32
tp253
Rp254
ag4
(I1856
I1952
I32
I32
tp255
Rp256
ag4
(I1888
I1952
I32
I32
tp257
Rp258
ag4
(I1920
I1952
I32
I32
tp259
Rp260
ag4
(I1952
I1952
I32
I32
tp261
Rp262
ag4
(I1984
I1952
I32
I32
tp263
Rp264
ag4
(I2016
I1952
I32
I32
tp265
Rp266
ag4
(I2048
I1952
I32
I32
tp267
Rp268
ag4
(I2080
I1952
I32
I32
tp269
Rp270
ag4
(I2112
I1952
I32
I32
tp271
Rp272
ag4
(I2720
I2176
I32
I32
tp273
Rp274
ag4
(I2752
I2176
I32
I32
tp275
Rp276
ag4
(I960
I2208
I32
I32
tp277
Rp278
ag4
(I960
I2240
I32
I32
tp279
Rp280
ag4
(I1056
I2368
I32
I32
tp281
Rp282
ag4
(I1088
I2368
I32
I32
tp283
Rp284
ag4
(I1120
I2368
I32
I32
tp285
Rp286
ag4
(I1152
I2368
I32
I32
tp287
Rp288
ag4
(I1216
I2368
I32
I32
tp289
Rp290
ag4
(I1248
I2368
I32
I32
tp291
Rp292
ag4
(I416
I2464
I32
I32
tp293
Rp294
ag4
(I512
I2464
I32
I32
tp295
Rp296
ag4
(I896
I2560
I32
I32
tp297
Rp298
ag4
(I896
I2592
I32
I32
tp299
Rp300
ag4
(I896
I2624
I32
I32
tp301
Rp302
ag4
(I896
I2656
I32
I32
tp303
Rp304
ag4
(I896
I2688
I32
I32
tp305
Rp306
ag4
(I896
I2720
I32
I32
tp307
Rp308
ag4
(I1536
I2816
I32
I32
tp309
Rp310
ag4
(I1568
I2816
I32
I32
tp311
Rp312
ag4
(I1600
I2816
I32
I32
tp313
Rp314
ag4
(I1632
I2816
I32
I32
tp315
Rp316
ag4
(I1664
I2816
I32
I32
tp317
Rp318
ag4
(I1696
I2816
I32
I32
tp319
Rp320
ag4
(I1728
I2816
I32
I32
tp321
Rp322
ag4
(I1760
I2816
I32
I32
tp323
Rp324
ag4
(I1792
I2816
I32
I32
tp325
Rp326
ag4
(I1824
I2816
I32
I32
tp327
Rp328
ag4
(I1856
I2816
I32
I32
tp329
Rp330
ag4
(I1888
I2816
I32
I32
tp331
Rp332
ag4
(I1920
I2816
I32
I32
tp333
Rp334
ag4
(I1952
I2816
I32
I32
tp335
Rp336
ag4
(I1984
I2816
I32
I32
tp337
Rp338
ag4
(I2016
I2816
I32
I32
tp339
Rp340
ag4
(I2048
I2816
I32
I32
tp341
Rp342
ag4
(I2080
I2816
I32
I32
tp343
Rp344
ag4
(I2112
I2816
I32
I32
tp345
Rp346
ag4
(I2272
I2816
I32
I32
tp347
Rp348
ag4
(I2304
I2816
I32
I32
tp349
Rp350
ag4
(I2336
I2816
I32
I32
tp351
Rp352
ag4
(I2368
I2816
I32
I32
tp353
Rp354
ag4
(I2400
I2816
I32
I32
tp355
Rp356
ag4
(I2432
I2816
I32
I32
tp357
Rp358
ag4
(I2464
I2816
I32
I32
tp359
Rp360
ag4
(I2496
I2816
I32
I32
tp361
Rp362
ag4
(I2528
I2816
I32
I32
tp363
Rp364
ag4
(I2560
I2816
I32
I32
tp365
Rp366
ag4
(I2592
I2816
I32
I32
tp367
Rp368
ag4
(I2624
I2816
I32
I32
tp369
Rp370
ag4
(I2656
I2816
I32
I32
tp371
Rp372
ag4
(I2688
I2816
I32
I32
tp373
Rp374
ag4
(I2720
I2816
I32
I32
tp375
Rp376
ag4
(I2752
I2816
I32
I32
tp377
Rp378
ag4
(I2784
I2816
I32
I32
tp379
Rp380
ag4
(I2816
I2816
I32
I32
tp381
Rp382
ag4
(I2848
I2816
I32
I32
tp383
Rp384
ag4
(I2880
I2816
I32
I32
tp385
Rp386
asS'hazardRotations'
p387
(lp388
I0
aI0
aI0
aI0
aI0
aI0
aI0
aI1
aI1
aI0
aI0
aI0
aI0
aI0
aI0
aI0
aI0
aI0
aI3
aI3
aI3
aI3
aI3
aI3
aI0
aI0
aI0
aI0
aI0
aI0
aI0
aI2
aI2
aI2
aI2
aI2
aI0
aI0
aI0
aI0
aI0
aI0
aI0
aI0
aI0
aI0
aI0
aI0
aI0
aI0
aI0
aI0
aI0
aI0
aI0
aI0
aI0
aI0
aI0
aI0
aI0
aI0
aI0
aI0
aI0
aI0
aI0
aI0
aI0
aI0
aI0
aI0
aI3
aI3
aI3
aI0
aI3
aI3
aI3
aI3
aI0
aI0
aI0
aI0
aI0
aI0
aI0
aI0
aI0
aI0
aI0
aI0
aI0
aI0
aI0
aI0
aI0
aI0
aI0
aI0
aI0
aI0
aI0
aI0
aI0
aI0
aI0
aI0
aI0
aI0
aI0
aI0
aI0
aI0
aI0
aI0
aI0
aI1
aI1
aI0
aI0
aI0
aI0
aI0
aI0
aI2
aI2
aI1
aI1
aI1
aI1
aI1
aI1
aI0
aI0
aI0
aI0
aI0
aI0
aI0
aI0
aI0
aI0
aI0
aI0
aI0
aI0
aI0
aI0
aI0
aI0
aI0
aI0
aI0
aI0
aI0
aI0
aI0
aI0
aI0
aI0
aI0
aI0
aI0
aI0
aI0
aI0
aI0
aI0
aI0
aI0
aI0
asS'playerStart'
p389
(I96
I2816
tp390
sS'offsetStart'
p391
(I0
I2400
tp392
sS'walls'
p393
(lp394
g4
(I0
I0
I32
I32
tp395
Rp396
ag4
(I32
I0
I32
I32
tp397
Rp398
ag4
(I64
I0
I32
I32
tp399
Rp400
ag4
(I96
I0
I32
I32
tp401
Rp402
ag4
(I128
I0
I32
I32
tp403
Rp404
ag4
(I160
I0
I32
I32
tp405
Rp406
ag4
(I192
I0
I32
I32
tp407
Rp408
ag4
(I224
I0
I32
I32
tp409
Rp410
ag4
(I256
I0
I32
I32
tp411
Rp412
ag4
(I288
I0
I32
I32
tp413
Rp414
ag4
(I320
I0
I32
I32
tp415
Rp416
ag4
(I352
I0
I32
I32
tp417
Rp418
ag4
(I384
I0
I32
I32
tp419
Rp420
ag4
(I416
I0
I32
I32
tp421
Rp422
ag4
(I448
I0
I32
I32
tp423
Rp424
ag4
(I480
I0
I32
I32
tp425
Rp426
ag4
(I512
I0
I32
I32
tp427
Rp428
ag4
(I544
I0
I32
I32
tp429
Rp430
ag4
(I576
I0
I32
I32
tp431
Rp432
ag4
(I608
I0
I32
I32
tp433
Rp434
ag4
(I640
I0
I32
I32
tp435
Rp436
ag4
(I672
I0
I32
I32
tp437
Rp438
ag4
(I704
I0
I32
I32
tp439
Rp440
ag4
(I736
I0
I32
I32
tp441
Rp442
ag4
(I768
I0
I32
I32
tp443
Rp444
ag4
(I800
I0
I32
I32
tp445
Rp446
ag4
(I832
I0
I32
I32
tp447
Rp448
ag4
(I864
I0
I32
I32
tp449
Rp450
ag4
(I896
I0
I32
I32
tp451
Rp452
ag4
(I928
I0
I32
I32
tp453
Rp454
ag4
(I960
I0
I32
I32
tp455
Rp456
ag4
(I992
I0
I32
I32
tp457
Rp458
ag4
(I1024
I0
I32
I32
tp459
Rp460
ag4
(I1056
I0
I32
I32
tp461
Rp462
ag4
(I1088
I0
I32
I32
tp463
Rp464
ag4
(I1120
I0
I32
I32
tp465
Rp466
ag4
(I1152
I0
I32
I32
tp467
Rp468
ag4
(I1184
I0
I32
I32
tp469
Rp470
ag4
(I1216
I0
I32
I32
tp471
Rp472
ag4
(I1248
I0
I32
I32
tp473
Rp474
ag4
(I1280
I0
I32
I32
tp475
Rp476
ag4
(I1312
I0
I32
I32
tp477
Rp478
ag4
(I1344
I0
I32
I32
tp479
Rp480
ag4
(I1376
I0
I32
I32
tp481
Rp482
ag4
(I1408
I0
I32
I32
tp483
Rp484
ag4
(I1440
I0
I32
I32
tp485
Rp486
ag4
(I1472
I0
I32
I32
tp487
Rp488
ag4
(I1504
I0
I32
I32
tp489
Rp490
ag4
(I1536
I0
I32
I32
tp491
Rp492
ag4
(I1568
I0
I32
I32
tp493
Rp494
ag4
(I1600
I0
I32
I32
tp495
Rp496
ag4
(I1632
I0
I32
I32
tp497
Rp498
ag4
(I1664
I0
I32
I32
tp499
Rp500
ag4
(I1696
I0
I32
I32
tp501
Rp502
ag4
(I1728
I0
I32
I32
tp503
Rp504
ag4
(I1760
I0
I32
I32
tp505
Rp506
ag4
(I1792
I0
I32
I32
tp507
Rp508
ag4
(I1824
I0
I32
I32
tp509
Rp510
ag4
(I1856
I0
I32
I32
tp511
Rp512
ag4
(I1888
I0
I32
I32
tp513
Rp514
ag4
(I1920
I0
I32
I32
tp515
Rp516
ag4
(I1952
I0
I32
I32
tp517
Rp518
ag4
(I1984
I0
I32
I32
tp519
Rp520
ag4
(I2016
I0
I32
I32
tp521
Rp522
ag4
(I2048
I0
I32
I32
tp523
Rp524
ag4
(I2080
I0
I32
I32
tp525
Rp526
ag4
(I2112
I0
I32
I32
tp527
Rp528
ag4
(I2144
I0
I32
I32
tp529
Rp530
ag4
(I2176
I0
I32
I32
tp531
Rp532
ag4
(I2208
I0
I32
I32
tp533
Rp534
ag4
(I2240
I0
I32
I32
tp535
Rp536
ag4
(I2272
I0
I32
I32
tp537
Rp538
ag4
(I2304
I0
I32
I32
tp539
Rp540
ag4
(I2336
I0
I32
I32
tp541
Rp542
ag4
(I2368
I0
I32
I32
tp543
Rp544
ag4
(I2400
I0
I32
I32
tp545
Rp546
ag4
(I2432
I0
I32
I32
tp547
Rp548
ag4
(I2464
I0
I32
I32
tp549
Rp550
ag4
(I2496
I0
I32
I32
tp551
Rp552
ag4
(I2528
I0
I32
I32
tp553
Rp554
ag4
(I2560
I0
I32
I32
tp555
Rp556
ag4
(I2592
I0
I32
I32
tp557
Rp558
ag4
(I2624
I0
I32
I32
tp559
Rp560
ag4
(I2656
I0
I32
I32
tp561
Rp562
ag4
(I2688
I0
I32
I32
tp563
Rp564
ag4
(I2720
I0
I32
I32
tp565
Rp566
ag4
(I2752
I0
I32
I32
tp567
Rp568
ag4
(I2784
I0
I32
I32
tp569
Rp570
ag4
(I2816
I0
I32
I32
tp571
Rp572
ag4
(I2848
I0
I32
I32
tp573
Rp574
ag4
(I2880
I0
I32
I32
tp575
Rp576
ag4
(I2912
I0
I32
I32
tp577
Rp578
ag4
(I2944
I0
I32
I32
tp579
Rp580
ag4
(I2976
I0
I32
I32
tp581
Rp582
ag4
(I3008
I0
I32
I32
tp583
Rp584
ag4
(I3040
I0
I32
I32
tp585
Rp586
ag4
(I3072
I0
I32
I32
tp587
Rp588
ag4
(I3104
I0
I32
I32
tp589
Rp590
ag4
(I3136
I0
I32
I32
tp591
Rp592
ag4
(I3168
I0
I32
I32
tp593
Rp594
ag4
(I0
I32
I32
I32
tp595
Rp596
ag4
(I3168
I32
I32
I32
tp597
Rp598
ag4
(I0
I64
I32
I32
tp599
Rp600
ag4
(I3168
I64
I32
I32
tp601
Rp602
ag4
(I0
I96
I32
I32
tp603
Rp604
ag4
(I256
I96
I32
I32
tp605
Rp606
ag4
(I288
I96
I32
I32
tp607
Rp608
ag4
(I320
I96
I32
I32
tp609
Rp610
ag4
(I3168
I96
I32
I32
tp611
Rp612
ag4
(I0
I128
I32
I32
tp613
Rp614
ag4
(I512
I128
I32
I32
tp615
Rp616
ag4
(I544
I128
I32
I32
tp617
Rp618
ag4
(I576
I128
I32
I32
tp619
Rp620
ag4
(I640
I128
I32
I32
tp621
Rp622
ag4
(I672
I128
I32
I32
tp623
Rp624
ag4
(I704
I128
I32
I32
tp625
Rp626
ag4
(I736
I128
I32
I32
tp627
Rp628
ag4
(I768
I128
I32
I32
tp629
Rp630
ag4
(I800
I128
I32
I32
tp631
Rp632
ag4
(I832
I128
I32
I32
tp633
Rp634
ag4
(I864
I128
I32
I32
tp635
Rp636
ag4
(I896
I128
I32
I32
tp637
Rp638
ag4
(I928
I128
I32
I32
tp639
Rp640
ag4
(I960
I128
I32
I32
tp641
Rp642
ag4
(I992
I128
I32
I32
tp643
Rp644
ag4
(I1024
I128
I32
I32
tp645
Rp646
ag4
(I1056
I128
I32
I32
tp647
Rp648
ag4
(I1088
I128
I32
I32
tp649
Rp650
ag4
(I1120
I128
I32
I32
tp651
Rp652
ag4
(I1152
I128
I32
I32
tp653
Rp654
ag4
(I1184
I128
I32
I32
tp655
Rp656
ag4
(I1216
I128
I32
I32
tp657
Rp658
ag4
(I1248
I128
I32
I32
tp659
Rp660
ag4
(I1280
I128
I32
I32
tp661
Rp662
ag4
(I1312
I128
I32
I32
tp663
Rp664
ag4
(I1344
I128
I32
I32
tp665
Rp666
ag4
(I1376
I128
I32
I32
tp667
Rp668
ag4
(I1408
I128
I32
I32
tp669
Rp670
ag4
(I1440
I128
I32
I32
tp671
Rp672
ag4
(I1472
I128
I32
I32
tp673
Rp674
ag4
(I1504
I128
I32
I32
tp675
Rp676
ag4
(I1536
I128
I32
I32
tp677
Rp678
ag4
(I1568
I128
I32
I32
tp679
Rp680
ag4
(I1600
I128
I32
I32
tp681
Rp682
ag4
(I1632
I128
I32
I32
tp683
Rp684
ag4
(I1664
I128
I32
I32
tp685
Rp686
ag4
(I1696
I128
I32
I32
tp687
Rp688
ag4
(I1728
I128
I32
I32
tp689
Rp690
ag4
(I1760
I128
I32
I32
tp691
Rp692
ag4
(I1792
I128
I32
I32
tp693
Rp694
ag4
(I3168
I128
I32
I32
tp695
Rp696
ag4
(I0
I160
I32
I32
tp697
Rp698
ag4
(I32
I160
I32
I32
tp699
Rp700
ag4
(I64
I160
I32
I32
tp701
Rp702
ag4
(I96
I160
I32
I32
tp703
Rp704
ag4
(I640
I160
I32
I32
tp705
Rp706
ag4
(I3168
I160
I32
I32
tp707
Rp708
ag4
(I0
I192
I32
I32
tp709
Rp710
ag4
(I352
I192
I32
I32
tp711
Rp712
ag4
(I384
I192
I32
I32
tp713
Rp714
ag4
(I416
I192
I32
I32
tp715
Rp716
ag4
(I640
I192
I32
I32
tp717
Rp718
ag4
(I1888
I192
I32
I32
tp719
Rp720
ag4
(I1920
I192
I32
I32
tp721
Rp722
ag4
(I1952
I192
I32
I32
tp723
Rp724
ag4
(I2624
I192
I32
I32
tp725
Rp726
ag4
(I2656
I192
I32
I32
tp727
Rp728
ag4
(I3168
I192
I32
I32
tp729
Rp730
ag4
(I0
I224
I32
I32
tp731
Rp732
ag4
(I640
I224
I32
I32
tp733
Rp734
ag4
(I1216
I224
I32
I32
tp735
Rp736
ag4
(I1248
I224
I32
I32
tp737
Rp738
ag4
(I1344
I224
I32
I32
tp739
Rp740
ag4
(I1376
I224
I32
I32
tp741
Rp742
ag4
(I1472
I224
I32
I32
tp743
Rp744
ag4
(I1504
I224
I32
I32
tp745
Rp746
ag4
(I1536
I224
I32
I32
tp747
Rp748
ag4
(I1920
I224
I32
I32
tp749
Rp750
ag4
(I2112
I224
I32
I32
tp751
Rp752
ag4
(I2144
I224
I32
I32
tp753
Rp754
ag4
(I3168
I224
I32
I32
tp755
Rp756
ag4
(I0
I256
I32
I32
tp757
Rp758
ag4
(I640
I256
I32
I32
tp759
Rp760
ag4
(I1184
I256
I32
I32
tp761
Rp762
ag4
(I1216
I256
I32
I32
tp763
Rp764
ag4
(I1248
I256
I32
I32
tp765
Rp766
ag4
(I1344
I256
I32
I32
tp767
Rp768
ag4
(I1376
I256
I32
I32
tp769
Rp770
ag4
(I1472
I256
I32
I32
tp771
Rp772
ag4
(I1504
I256
I32
I32
tp773
Rp774
ag4
(I1536
I256
I32
I32
tp775
Rp776
ag4
(I1568
I256
I32
I32
tp777
Rp778
ag4
(I1920
I256
I32
I32
tp779
Rp780
ag4
(I2272
I256
I32
I32
tp781
Rp782
ag4
(I2304
I256
I32
I32
tp783
Rp784
ag4
(I2880
I256
I32
I32
tp785
Rp786
ag4
(I2912
I256
I32
I32
tp787
Rp788
ag4
(I3168
I256
I32
I32
tp789
Rp790
ag4
(I0
I288
I32
I32
tp791
Rp792
ag4
(I160
I288
I32
I32
tp793
Rp794
ag4
(I192
I288
I32
I32
tp795
Rp796
ag4
(I224
I288
I32
I32
tp797
Rp798
ag4
(I480
I288
I32
I32
tp799
Rp800
ag4
(I512
I288
I32
I32
tp801
Rp802
ag4
(I544
I288
I32
I32
tp803
Rp804
ag4
(I640
I288
I32
I32
tp805
Rp806
ag4
(I896
I288
I32
I32
tp807
Rp808
ag4
(I928
I288
I32
I32
tp809
Rp810
ag4
(I960
I288
I32
I32
tp811
Rp812
ag4
(I992
I288
I32
I32
tp813
Rp814
ag4
(I1024
I288
I32
I32
tp815
Rp816
ag4
(I1056
I288
I32
I32
tp817
Rp818
ag4
(I1088
I288
I32
I32
tp819
Rp820
ag4
(I1120
I288
I32
I32
tp821
Rp822
ag4
(I1152
I288
I32
I32
tp823
Rp824
ag4
(I1184
I288
I32
I32
tp825
Rp826
ag4
(I1248
I288
I32
I32
tp827
Rp828
ag4
(I1280
I288
I32
I32
tp829
Rp830
ag4
(I1312
I288
I32
I32
tp831
Rp832
ag4
(I1344
I288
I32
I32
tp833
Rp834
ag4
(I1376
I288
I32
I32
tp835
Rp836
ag4
(I1408
I288
I32
I32
tp837
Rp838
ag4
(I1440
I288
I32
I32
tp839
Rp840
ag4
(I1472
I288
I32
I32
tp841
Rp842
ag4
(I1504
I288
I32
I32
tp843
Rp844
ag4
(I1536
I288
I32
I32
tp845
Rp846
ag4
(I1568
I288
I32
I32
tp847
Rp848
ag4
(I1600
I288
I32
I32
tp849
Rp850
ag4
(I1632
I288
I32
I32
tp851
Rp852
ag4
(I1664
I288
I32
I32
tp853
Rp854
ag4
(I1696
I288
I32
I32
tp855
Rp856
ag4
(I1728
I288
I32
I32
tp857
Rp858
ag4
(I1760
I288
I32
I32
tp859
Rp860
ag4
(I1792
I288
I32
I32
tp861
Rp862
ag4
(I1824
I288
I32
I32
tp863
Rp864
ag4
(I1856
I288
I32
I32
tp865
Rp866
ag4
(I1888
I288
I32
I32
tp867
Rp868
ag4
(I1920
I288
I32
I32
tp869
Rp870
ag4
(I3168
I288
I32
I32
tp871
Rp872
ag4
(I0
I320
I32
I32
tp873
Rp874
ag4
(I640
I320
I32
I32
tp875
Rp876
ag4
(I1056
I320
I32
I32
tp877
Rp878
ag4
(I1088
I320
I32
I32
tp879
Rp880
ag4
(I1280
I320
I32
I32
tp881
Rp882
ag4
(I1920
I320
I32
I32
tp883
Rp884
ag4
(I2560
I320
I32
I32
tp885
Rp886
ag4
(I2592
I320
I32
I32
tp887
Rp888
ag4
(I3168
I320
I32
I32
tp889
Rp890
ag4
(I0
I352
I32
I32
tp891
Rp892
ag4
(I320
I352
I32
I32
tp893
Rp894
ag4
(I352
I352
I32
I32
tp895
Rp896
ag4
(I384
I352
I32
I32
tp897
Rp898
ag4
(I640
I352
I32
I32
tp899
Rp900
ag4
(I1088
I352
I32
I32
tp901
Rp902
ag4
(I1120
I352
I32
I32
tp903
Rp904
ag4
(I1280
I352
I32
I32
tp905
Rp906
ag4
(I1920
I352
I32
I32
tp907
Rp908
ag4
(I2208
I352
I32
I32
tp909
Rp910
ag4
(I2240
I352
I32
I32
tp911
Rp912
ag4
(I2848
I352
I32
I32
tp913
Rp914
ag4
(I2880
I352
I32
I32
tp915
Rp916
ag4
(I3168
I352
I32
I32
tp917
Rp918
ag4
(I0
I384
I32
I32
tp919
Rp920
ag4
(I640
I384
I32
I32
tp921
Rp922
ag4
(I1120
I384
I32
I32
tp923
Rp924
ag4
(I1152
I384
I32
I32
tp925
Rp926
ag4
(I1184
I384
I32
I32
tp927
Rp928
ag4
(I1216
I384
I32
I32
tp929
Rp930
ag4
(I1248
I384
I32
I32
tp931
Rp932
ag4
(I1280
I384
I32
I32
tp933
Rp934
ag4
(I1408
I384
I32
I32
tp935
Rp936
ag4
(I1440
I384
I32
I32
tp937
Rp938
ag4
(I1472
I384
I32
I32
tp939
Rp940
ag4
(I1920
I384
I32
I32
tp941
Rp942
ag4
(I2016
I384
I32
I32
tp943
Rp944
ag4
(I2048
I384
I32
I32
tp945
Rp946
ag4
(I3168
I384
I32
I32
tp947
Rp948
ag4
(I0
I416
I32
I32
tp949
Rp950
ag4
(I64
I416
I32
I32
tp951
Rp952
ag4
(I96
I416
I32
I32
tp953
Rp954
ag4
(I128
I416
I32
I32
tp955
Rp956
ag4
(I640
I416
I32
I32
tp957
Rp958
ag4
(I1408
I416
I32
I32
tp959
Rp960
ag4
(I1440
I416
I32
I32
tp961
Rp962
ag4
(I1472
I416
I32
I32
tp963
Rp964
ag4
(I1504
I416
I32
I32
tp965
Rp966
ag4
(I1920
I416
I32
I32
tp967
Rp968
ag4
(I2464
I416
I32
I32
tp969
Rp970
ag4
(I2496
I416
I32
I32
tp971
Rp972
ag4
(I2720
I416
I32
I32
tp973
Rp974
ag4
(I2752
I416
I32
I32
tp975
Rp976
ag4
(I3168
I416
I32
I32
tp977
Rp978
ag4
(I0
I448
I32
I32
tp979
Rp980
ag4
(I384
I448
I32
I32
tp981
Rp982
ag4
(I416
I448
I32
I32
tp983
Rp984
ag4
(I448
I448
I32
I32
tp985
Rp986
ag4
(I640
I448
I32
I32
tp987
Rp988
ag4
(I672
I448
I32
I32
tp989
Rp990
ag4
(I704
I448
I32
I32
tp991
Rp992
ag4
(I736
I448
I32
I32
tp993
Rp994
ag4
(I768
I448
I32
I32
tp995
Rp996
ag4
(I800
I448
I32
I32
tp997
Rp998
ag4
(I832
I448
I32
I32
tp999
Rp1000
ag4
(I864
I448
I32
I32
tp1001
Rp1002
ag4
(I896
I448
I32
I32
tp1003
Rp1004
ag4
(I928
I448
I32
I32
tp1005
Rp1006
ag4
(I960
I448
I32
I32
tp1007
Rp1008
ag4
(I992
I448
I32
I32
tp1009
Rp1010
ag4
(I1024
I448
I32
I32
tp1011
Rp1012
ag4
(I1056
I448
I32
I32
tp1013
Rp1014
ag4
(I1088
I448
I32
I32
tp1015
Rp1016
ag4
(I1120
I448
I32
I32
tp1017
Rp1018
ag4
(I1152
I448
I32
I32
tp1019
Rp1020
ag4
(I1184
I448
I32
I32
tp1021
Rp1022
ag4
(I1216
I448
I32
I32
tp1023
Rp1024
ag4
(I1248
I448
I32
I32
tp1025
Rp1026
ag4
(I1280
I448
I32
I32
tp1027
Rp1028
ag4
(I1312
I448
I32
I32
tp1029
Rp1030
ag4
(I1344
I448
I32
I32
tp1031
Rp1032
ag4
(I1376
I448
I32
I32
tp1033
Rp1034
ag4
(I1408
I448
I32
I32
tp1035
Rp1036
ag4
(I1440
I448
I32
I32
tp1037
Rp1038
ag4
(I1472
I448
I32
I32
tp1039
Rp1040
ag4
(I1504
I448
I32
I32
tp1041
Rp1042
ag4
(I1536
I448
I32
I32
tp1043
Rp1044
ag4
(I1568
I448
I32
I32
tp1045
Rp1046
ag4
(I1600
I448
I32
I32
tp1047
Rp1048
ag4
(I1632
I448
I32
I32
tp1049
Rp1050
ag4
(I1664
I448
I32
I32
tp1051
Rp1052
ag4
(I1920
I448
I32
I32
tp1053
Rp1054
ag4
(I3168
I448
I32
I32
tp1055
Rp1056
ag4
(I0
I480
I32
I32
tp1057
Rp1058
ag4
(I640
I480
I32
I32
tp1059
Rp1060
ag4
(I1920
I480
I32
I32
tp1061
Rp1062
ag4
(I3168
I480
I32
I32
tp1063
Rp1064
ag4
(I0
I512
I32
I32
tp1065
Rp1066
ag4
(I256
I512
I32
I32
tp1067
Rp1068
ag4
(I288
I512
I32
I32
tp1069
Rp1070
ag4
(I320
I512
I32
I32
tp1071
Rp1072
ag4
(I640
I512
I32
I32
tp1073
Rp1074
ag4
(I1024
I512
I32
I32
tp1075
Rp1076
ag4
(I1056
I512
I32
I32
tp1077
Rp1078
ag4
(I1216
I512
I32
I32
tp1079
Rp1080
ag4
(I1248
I512
I32
I32
tp1081
Rp1082
ag4
(I1408
I512
I32
I32
tp1083
Rp1084
ag4
(I1440
I512
I32
I32
tp1085
Rp1086
ag4
(I1600
I512
I32
I32
tp1087
Rp1088
ag4
(I1632
I512
I32
I32
tp1089
Rp1090
ag4
(I1920
I512
I32
I32
tp1091
Rp1092
ag4
(I2176
I512
I32
I32
tp1093
Rp1094
ag4
(I2208
I512
I32
I32
tp1095
Rp1096
ag4
(I2560
I512
I32
I32
tp1097
Rp1098
ag4
(I2592
I512
I32
I32
tp1099
Rp1100
ag4
(I2912
I512
I32
I32
tp1101
Rp1102
ag4
(I2944
I512
I32
I32
tp1103
Rp1104
ag4
(I3168
I512
I32
I32
tp1105
Rp1106
ag4
(I0
I544
I32
I32
tp1107
Rp1108
ag4
(I640
I544
I32
I32
tp1109
Rp1110
ag4
(I928
I544
I32
I32
tp1111
Rp1112
ag4
(I960
I544
I32
I32
tp1113
Rp1114
ag4
(I1024
I544
I32
I32
tp1115
Rp1116
ag4
(I1056
I544
I32
I32
tp1117
Rp1118
ag4
(I1120
I544
I32
I32
tp1119
Rp1120
ag4
(I1152
I544
I32
I32
tp1121
Rp1122
ag4
(I1216
I544
I32
I32
tp1123
Rp1124
ag4
(I1248
I544
I32
I32
tp1125
Rp1126
ag4
(I1312
I544
I32
I32
tp1127
Rp1128
ag4
(I1344
I544
I32
I32
tp1129
Rp1130
ag4
(I1408
I544
I32
I32
tp1131
Rp1132
ag4
(I1440
I544
I32
I32
tp1133
Rp1134
ag4
(I1504
I544
I32
I32
tp1135
Rp1136
ag4
(I1536
I544
I32
I32
tp1137
Rp1138
ag4
(I1600
I544
I32
I32
tp1139
Rp1140
ag4
(I1632
I544
I32
I32
tp1141
Rp1142
ag4
(I1920
I544
I32
I32
tp1143
Rp1144
ag4
(I2400
I544
I32
I32
tp1145
Rp1146
ag4
(I2432
I544
I32
I32
tp1147
Rp1148
ag4
(I3168
I544
I32
I32
tp1149
Rp1150
ag4
(I0
I576
I32
I32
tp1151
Rp1152
ag4
(I640
I576
I32
I32
tp1153
Rp1154
ag4
(I928
I576
I32
I32
tp1155
Rp1156
ag4
(I960
I576
I32
I32
tp1157
Rp1158
ag4
(I1024
I576
I32
I32
tp1159
Rp1160
ag4
(I1056
I576
I32
I32
tp1161
Rp1162
ag4
(I1120
I576
I32
I32
tp1163
Rp1164
ag4
(I1152
I576
I32
I32
tp1165
Rp1166
ag4
(I1216
I576
I32
I32
tp1167
Rp1168
ag4
(I1248
I576
I32
I32
tp1169
Rp1170
ag4
(I1312
I576
I32
I32
tp1171
Rp1172
ag4
(I1344
I576
I32
I32
tp1173
Rp1174
ag4
(I1408
I576
I32
I32
tp1175
Rp1176
ag4
(I1440
I576
I32
I32
tp1177
Rp1178
ag4
(I1504
I576
I32
I32
tp1179
Rp1180
ag4
(I1536
I576
I32
I32
tp1181
Rp1182
ag4
(I1600
I576
I32
I32
tp1183
Rp1184
ag4
(I1632
I576
I32
I32
tp1185
Rp1186
ag4
(I1920
I576
I32
I32
tp1187
Rp1188
ag4
(I3168
I576
I32
I32
tp1189
Rp1190
ag4
(I0
I608
I32
I32
tp1191
Rp1192
ag4
(I128
I608
I32
I32
tp1193
Rp1194
ag4
(I160
I608
I32
I32
tp1195
Rp1196
ag4
(I192
I608
I32
I32
tp1197
Rp1198
ag4
(I448
I608
I32
I32
tp1199
Rp1200
ag4
(I480
I608
I32
I32
tp1201
Rp1202
ag4
(I512
I608
I32
I32
tp1203
Rp1204
ag4
(I640
I608
I32
I32
tp1205
Rp1206
ag4
(I896
I608
I32
I32
tp1207
Rp1208
ag4
(I928
I608
I32
I32
tp1209
Rp1210
ag4
(I960
I608
I32
I32
tp1211
Rp1212
ag4
(I992
I608
I32
I32
tp1213
Rp1214
ag4
(I1024
I608
I32
I32
tp1215
Rp1216
ag4
(I1056
I608
I32
I32
tp1217
Rp1218
ag4
(I1088
I608
I32
I32
tp1219
Rp1220
ag4
(I1120
I608
I32
I32
tp1221
Rp1222
ag4
(I1152
I608
I32
I32
tp1223
Rp1224
ag4
(I1184
I608
I32
I32
tp1225
Rp1226
ag4
(I1216
I608
I32
I32
tp1227
Rp1228
ag4
(I1248
I608
I32
I32
tp1229
Rp1230
ag4
(I1280
I608
I32
I32
tp1231
Rp1232
ag4
(I1312
I608
I32
I32
tp1233
Rp1234
ag4
(I1344
I608
I32
I32
tp1235
Rp1236
ag4
(I1376
I608
I32
I32
tp1237
Rp1238
ag4
(I1408
I608
I32
I32
tp1239
Rp1240
ag4
(I1440
I608
I32
I32
tp1241
Rp1242
ag4
(I1472
I608
I32
I32
tp1243
Rp1244
ag4
(I1504
I608
I32
I32
tp1245
Rp1246
ag4
(I1536
I608
I32
I32
tp1247
Rp1248
ag4
(I1568
I608
I32
I32
tp1249
Rp1250
ag4
(I1600
I608
I32
I32
tp1251
Rp1252
ag4
(I1632
I608
I32
I32
tp1253
Rp1254
ag4
(I1664
I608
I32
I32
tp1255
Rp1256
ag4
(I1696
I608
I32
I32
tp1257
Rp1258
ag4
(I1728
I608
I32
I32
tp1259
Rp1260
ag4
(I1760
I608
I32
I32
tp1261
Rp1262
ag4
(I1792
I608
I32
I32
tp1263
Rp1264
ag4
(I1824
I608
I32
I32
tp1265
Rp1266
ag4
(I1856
I608
I32
I32
tp1267
Rp1268
ag4
(I1888
I608
I32
I32
tp1269
Rp1270
ag4
(I1920
I608
I32
I32
tp1271
Rp1272
ag4
(I2016
I608
I32
I32
tp1273
Rp1274
ag4
(I2048
I608
I32
I32
tp1275
Rp1276
ag4
(I2688
I608
I32
I32
tp1277
Rp1278
ag4
(I2720
I608
I32
I32
tp1279
Rp1280
ag4
(I2944
I608
I32
I32
tp1281
Rp1282
ag4
(I2976
I608
I32
I32
tp1283
Rp1284
ag4
(I3168
I608
I32
I32
tp1285
Rp1286
ag4
(I0
I640
I32
I32
tp1287
Rp1288
ag4
(I640
I640
I32
I32
tp1289
Rp1290
ag4
(I1024
I640
I32
I32
tp1291
Rp1292
ag4
(I1056
I640
I32
I32
tp1293
Rp1294
ag4
(I1088
I640
I32
I32
tp1295
Rp1296
ag4
(I1216
I640
I32
I32
tp1297
Rp1298
ag4
(I1248
I640
I32
I32
tp1299
Rp1300
ag4
(I1280
I640
I32
I32
tp1301
Rp1302
ag4
(I1312
I640
I32
I32
tp1303
Rp1304
ag4
(I1344
I640
I32
I32
tp1305
Rp1306
ag4
(I1376
I640
I32
I32
tp1307
Rp1308
ag4
(I1504
I640
I32
I32
tp1309
Rp1310
ag4
(I1536
I640
I32
I32
tp1311
Rp1312
ag4
(I1568
I640
I32
I32
tp1313
Rp1314
ag4
(I1600
I640
I32
I32
tp1315
Rp1316
ag4
(I1632
I640
I32
I32
tp1317
Rp1318
ag4
(I1664
I640
I32
I32
tp1319
Rp1320
ag4
(I1920
I640
I32
I32
tp1321
Rp1322
ag4
(I2240
I640
I32
I32
tp1323
Rp1324
ag4
(I2272
I640
I32
I32
tp1325
Rp1326
ag4
(I3168
I640
I32
I32
tp1327
Rp1328
ag4
(I0
I672
I32
I32
tp1329
Rp1330
ag4
(I320
I672
I32
I32
tp1331
Rp1332
ag4
(I352
I672
I32
I32
tp1333
Rp1334
ag4
(I384
I672
I32
I32
tp1335
Rp1336
ag4
(I640
I672
I32
I32
tp1337
Rp1338
ag4
(I672
I672
I32
I32
tp1339
Rp1340
ag4
(I960
I672
I32
I32
tp1341
Rp1342
ag4
(I1024
I672
I32
I32
tp1343
Rp1344
ag4
(I1056
I672
I32
I32
tp1345
Rp1346
ag4
(I1216
I672
I32
I32
tp1347
Rp1348
ag4
(I1248
I672
I32
I32
tp1349
Rp1350
ag4
(I1664
I672
I32
I32
tp1351
Rp1352
ag4
(I1920
I672
I32
I32
tp1353
Rp1354
ag4
(I3168
I672
I32
I32
tp1355
Rp1356
ag4
(I0
I704
I32
I32
tp1357
Rp1358
ag4
(I640
I704
I32
I32
tp1359
Rp1360
ag4
(I672
I704
I32
I32
tp1361
Rp1362
ag4
(I704
I704
I32
I32
tp1363
Rp1364
ag4
(I928
I704
I32
I32
tp1365
Rp1366
ag4
(I960
I704
I32
I32
tp1367
Rp1368
ag4
(I1024
I704
I32
I32
tp1369
Rp1370
ag4
(I1344
I704
I32
I32
tp1371
Rp1372
ag4
(I1376
I704
I32
I32
tp1373
Rp1374
ag4
(I1504
I704
I32
I32
tp1375
Rp1376
ag4
(I1920
I704
I32
I32
tp1377
Rp1378
ag4
(I2464
I704
I32
I32
tp1379
Rp1380
ag4
(I2496
I704
I32
I32
tp1381
Rp1382
ag4
(I2784
I704
I32
I32
tp1383
Rp1384
ag4
(I2816
I704
I32
I32
tp1385
Rp1386
ag4
(I3168
I704
I32
I32
tp1387
Rp1388
ag4
(I0
I736
I32
I32
tp1389
Rp1390
ag4
(I640
I736
I32
I32
tp1391
Rp1392
ag4
(I704
I736
I32
I32
tp1393
Rp1394
ag4
(I736
I736
I32
I32
tp1395
Rp1396
ag4
(I896
I736
I32
I32
tp1397
Rp1398
ag4
(I928
I736
I32
I32
tp1399
Rp1400
ag4
(I960
I736
I32
I32
tp1401
Rp1402
ag4
(I1216
I736
I32
I32
tp1403
Rp1404
ag4
(I1248
I736
I32
I32
tp1405
Rp1406
ag4
(I1280
I736
I32
I32
tp1407
Rp1408
ag4
(I1312
I736
I32
I32
tp1409
Rp1410
ag4
(I1344
I736
I32
I32
tp1411
Rp1412
ag4
(I1376
I736
I32
I32
tp1413
Rp1414
ag4
(I1504
I736
I32
I32
tp1415
Rp1416
ag4
(I1536
I736
I32
I32
tp1417
Rp1418
ag4
(I1568
I736
I32
I32
tp1419
Rp1420
ag4
(I1600
I736
I32
I32
tp1421
Rp1422
ag4
(I1632
I736
I32
I32
tp1423
Rp1424
ag4
(I1664
I736
I32
I32
tp1425
Rp1426
ag4
(I1920
I736
I32
I32
tp1427
Rp1428
ag4
(I2048
I736
I32
I32
tp1429
Rp1430
ag4
(I2080
I736
I32
I32
tp1431
Rp1432
ag4
(I3168
I736
I32
I32
tp1433
Rp1434
ag4
(I0
I768
I32
I32
tp1435
Rp1436
ag4
(I32
I768
I32
I32
tp1437
Rp1438
ag4
(I64
I768
I32
I32
tp1439
Rp1440
ag4
(I96
I768
I32
I32
tp1441
Rp1442
ag4
(I128
I768
I32
I32
tp1443
Rp1444
ag4
(I160
I768
I32
I32
tp1445
Rp1446
ag4
(I192
I768
I32
I32
tp1447
Rp1448
ag4
(I224
I768
I32
I32
tp1449
Rp1450
ag4
(I256
I768
I32
I32
tp1451
Rp1452
ag4
(I288
I768
I32
I32
tp1453
Rp1454
ag4
(I320
I768
I32
I32
tp1455
Rp1456
ag4
(I640
I768
I32
I32
tp1457
Rp1458
ag4
(I672
I768
I32
I32
tp1459
Rp1460
ag4
(I704
I768
I32
I32
tp1461
Rp1462
ag4
(I736
I768
I32
I32
tp1463
Rp1464
ag4
(I768
I768
I32
I32
tp1465
Rp1466
ag4
(I800
I768
I32
I32
tp1467
Rp1468
ag4
(I832
I768
I32
I32
tp1469
Rp1470
ag4
(I864
I768
I32
I32
tp1471
Rp1472
ag4
(I896
I768
I32
I32
tp1473
Rp1474
ag4
(I928
I768
I32
I32
tp1475
Rp1476
ag4
(I960
I768
I32
I32
tp1477
Rp1478
ag4
(I992
I768
I32
I32
tp1479
Rp1480
ag4
(I1024
I768
I32
I32
tp1481
Rp1482
ag4
(I1056
I768
I32
I32
tp1483
Rp1484
ag4
(I1088
I768
I32
I32
tp1485
Rp1486
ag4
(I1120
I768
I32
I32
tp1487
Rp1488
ag4
(I1152
I768
I32
I32
tp1489
Rp1490
ag4
(I1184
I768
I32
I32
tp1491
Rp1492
ag4
(I1216
I768
I32
I32
tp1493
Rp1494
ag4
(I1248
I768
I32
I32
tp1495
Rp1496
ag4
(I1280
I768
I32
I32
tp1497
Rp1498
ag4
(I1312
I768
I32
I32
tp1499
Rp1500
ag4
(I1344
I768
I32
I32
tp1501
Rp1502
ag4
(I1376
I768
I32
I32
tp1503
Rp1504
ag4
(I1408
I768
I32
I32
tp1505
Rp1506
ag4
(I1440
I768
I32
I32
tp1507
Rp1508
ag4
(I1472
I768
I32
I32
tp1509
Rp1510
ag4
(I1504
I768
I32
I32
tp1511
Rp1512
ag4
(I1536
I768
I32
I32
tp1513
Rp1514
ag4
(I1568
I768
I32
I32
tp1515
Rp1516
ag4
(I1600
I768
I32
I32
tp1517
Rp1518
ag4
(I1632
I768
I32
I32
tp1519
Rp1520
ag4
(I1664
I768
I32
I32
tp1521
Rp1522
ag4
(I1920
I768
I32
I32
tp1523
Rp1524
ag4
(I2272
I768
I32
I32
tp1525
Rp1526
ag4
(I2304
I768
I32
I32
tp1527
Rp1528
ag4
(I3168
I768
I32
I32
tp1529
Rp1530
ag4
(I0
I800
I32
I32
tp1531
Rp1532
ag4
(I640
I800
I32
I32
tp1533
Rp1534
ag4
(I1888
I800
I32
I32
tp1535
Rp1536
ag4
(I1920
I800
I32
I32
tp1537
Rp1538
ag4
(I3168
I800
I32
I32
tp1539
Rp1540
ag4
(I0
I832
I32
I32
tp1541
Rp1542
ag4
(I640
I832
I32
I32
tp1543
Rp1544
ag4
(I992
I832
I32
I32
tp1545
Rp1546
ag4
(I1024
I832
I32
I32
tp1547
Rp1548
ag4
(I1472
I832
I32
I32
tp1549
Rp1550
ag4
(I1504
I832
I32
I32
tp1551
Rp1552
ag4
(I1856
I832
I32
I32
tp1553
Rp1554
ag4
(I1888
I832
I32
I32
tp1555
Rp1556
ag4
(I1920
I832
I32
I32
tp1557
Rp1558
ag4
(I2560
I832
I32
I32
tp1559
Rp1560
ag4
(I2592
I832
I32
I32
tp1561
Rp1562
ag4
(I2944
I832
I32
I32
tp1563
Rp1564
ag4
(I2976
I832
I32
I32
tp1565
Rp1566
ag4
(I3168
I832
I32
I32
tp1567
Rp1568
ag4
(I0
I864
I32
I32
tp1569
Rp1570
ag4
(I320
I864
I32
I32
tp1571
Rp1572
ag4
(I352
I864
I32
I32
tp1573
Rp1574
ag4
(I384
I864
I32
I32
tp1575
Rp1576
ag4
(I416
I864
I32
I32
tp1577
Rp1578
ag4
(I448
I864
I32
I32
tp1579
Rp1580
ag4
(I480
I864
I32
I32
tp1581
Rp1582
ag4
(I512
I864
I32
I32
tp1583
Rp1584
ag4
(I544
I864
I32
I32
tp1585
Rp1586
ag4
(I576
I864
I32
I32
tp1587
Rp1588
ag4
(I608
I864
I32
I32
tp1589
Rp1590
ag4
(I640
I864
I32
I32
tp1591
Rp1592
ag4
(I992
I864
I32
I32
tp1593
Rp1594
ag4
(I1024
I864
I32
I32
tp1595
Rp1596
ag4
(I1056
I864
I32
I32
tp1597
Rp1598
ag4
(I1088
I864
I32
I32
tp1599
Rp1600
ag4
(I1408
I864
I32
I32
tp1601
Rp1602
ag4
(I1440
I864
I32
I32
tp1603
Rp1604
ag4
(I1472
I864
I32
I32
tp1605
Rp1606
ag4
(I1504
I864
I32
I32
tp1607
Rp1608
ag4
(I1824
I864
I32
I32
tp1609
Rp1610
ag4
(I1856
I864
I32
I32
tp1611
Rp1612
ag4
(I1920
I864
I32
I32
tp1613
Rp1614
ag4
(I2016
I864
I32
I32
tp1615
Rp1616
ag4
(I2048
I864
I32
I32
tp1617
Rp1618
ag4
(I2784
I864
I32
I32
tp1619
Rp1620
ag4
(I2816
I864
I32
I32
tp1621
Rp1622
ag4
(I3168
I864
I32
I32
tp1623
Rp1624
ag4
(I0
I896
I32
I32
tp1625
Rp1626
ag4
(I640
I896
I32
I32
tp1627
Rp1628
ag4
(I992
I896
I32
I32
tp1629
Rp1630
ag4
(I1088
I896
I32
I32
tp1631
Rp1632
ag4
(I1120
I896
I32
I32
tp1633
Rp1634
ag4
(I1152
I896
I32
I32
tp1635
Rp1636
ag4
(I1344
I896
I32
I32
tp1637
Rp1638
ag4
(I1376
I896
I32
I32
tp1639
Rp1640
ag4
(I1408
I896
I32
I32
tp1641
Rp1642
ag4
(I1504
I896
I32
I32
tp1643
Rp1644
ag4
(I1792
I896
I32
I32
tp1645
Rp1646
ag4
(I1824
I896
I32
I32
tp1647
Rp1648
ag4
(I1920
I896
I32
I32
tp1649
Rp1650
ag4
(I2336
I896
I32
I32
tp1651
Rp1652
ag4
(I2368
I896
I32
I32
tp1653
Rp1654
ag4
(I3168
I896
I32
I32
tp1655
Rp1656
ag4
(I0
I928
I32
I32
tp1657
Rp1658
ag4
(I96
I928
I32
I32
tp1659
Rp1660
ag4
(I128
I928
I32
I32
tp1661
Rp1662
ag4
(I160
I928
I32
I32
tp1663
Rp1664
ag4
(I192
I928
I32
I32
tp1665
Rp1666
ag4
(I640
I928
I32
I32
tp1667
Rp1668
ag4
(I896
I928
I32
I32
tp1669
Rp1670
ag4
(I928
I928
I32
I32
tp1671
Rp1672
ag4
(I960
I928
I32
I32
tp1673
Rp1674
ag4
(I992
I928
I32
I32
tp1675
Rp1676
ag4
(I1024
I928
I32
I32
tp1677
Rp1678
ag4
(I1056
I928
I32
I32
tp1679
Rp1680
ag4
(I1088
I928
I32
I32
tp1681
Rp1682
ag4
(I1120
I928
I32
I32
tp1683
Rp1684
ag4
(I1152
I928
I32
I32
tp1685
Rp1686
ag4
(I1184
I928
I32
I32
tp1687
Rp1688
ag4
(I1216
I928
I32
I32
tp1689
Rp1690
ag4
(I1248
I928
I32
I32
tp1691
Rp1692
ag4
(I1280
I928
I32
I32
tp1693
Rp1694
ag4
(I1312
I928
I32
I32
tp1695
Rp1696
ag4
(I1344
I928
I32
I32
tp1697
Rp1698
ag4
(I1376
I928
I32
I32
tp1699
Rp1700
ag4
(I1408
I928
I32
I32
tp1701
Rp1702
ag4
(I1440
I928
I32
I32
tp1703
Rp1704
ag4
(I1472
I928
I32
I32
tp1705
Rp1706
ag4
(I1504
I928
I32
I32
tp1707
Rp1708
ag4
(I1536
I928
I32
I32
tp1709
Rp1710
ag4
(I1568
I928
I32
I32
tp1711
Rp1712
ag4
(I1600
I928
I32
I32
tp1713
Rp1714
ag4
(I1632
I928
I32
I32
tp1715
Rp1716
ag4
(I1664
I928
I32
I32
tp1717
Rp1718
ag4
(I1696
I928
I32
I32
tp1719
Rp1720
ag4
(I1728
I928
I32
I32
tp1721
Rp1722
ag4
(I1760
I928
I32
I32
tp1723
Rp1724
ag4
(I1792
I928
I32
I32
tp1725
Rp1726
ag4
(I1824
I928
I32
I32
tp1727
Rp1728
ag4
(I1856
I928
I32
I32
tp1729
Rp1730
ag4
(I1888
I928
I32
I32
tp1731
Rp1732
ag4
(I1920
I928
I32
I32
tp1733
Rp1734
ag4
(I3168
I928
I32
I32
tp1735
Rp1736
ag4
(I0
I960
I32
I32
tp1737
Rp1738
ag4
(I96
I960
I32
I32
tp1739
Rp1740
ag4
(I128
I960
I32
I32
tp1741
Rp1742
ag4
(I160
I960
I32
I32
tp1743
Rp1744
ag4
(I192
I960
I32
I32
tp1745
Rp1746
ag4
(I640
I960
I32
I32
tp1747
Rp1748
ag4
(I672
I960
I32
I32
tp1749
Rp1750
ag4
(I1152
I960
I32
I32
tp1751
Rp1752
ag4
(I1344
I960
I32
I32
tp1753
Rp1754
ag4
(I1920
I960
I32
I32
tp1755
Rp1756
ag4
(I1952
I960
I32
I32
tp1757
Rp1758
ag4
(I1984
I960
I32
I32
tp1759
Rp1760
ag4
(I2016
I960
I32
I32
tp1761
Rp1762
ag4
(I2048
I960
I32
I32
tp1763
Rp1764
ag4
(I2080
I960
I32
I32
tp1765
Rp1766
ag4
(I2112
I960
I32
I32
tp1767
Rp1768
ag4
(I2144
I960
I32
I32
tp1769
Rp1770
ag4
(I3168
I960
I32
I32
tp1771
Rp1772
ag4
(I0
I992
I32
I32
tp1773
Rp1774
ag4
(I288
I992
I32
I32
tp1775
Rp1776
ag4
(I320
I992
I32
I32
tp1777
Rp1778
ag4
(I352
I992
I32
I32
tp1779
Rp1780
ag4
(I384
I992
I32
I32
tp1781
Rp1782
ag4
(I640
I992
I32
I32
tp1783
Rp1784
ag4
(I672
I992
I32
I32
tp1785
Rp1786
ag4
(I704
I992
I32
I32
tp1787
Rp1788
ag4
(I960
I992
I32
I32
tp1789
Rp1790
ag4
(I1536
I992
I32
I32
tp1791
Rp1792
ag4
(I1920
I992
I32
I32
tp1793
Rp1794
ag4
(I2368
I992
I32
I32
tp1795
Rp1796
ag4
(I2400
I992
I32
I32
tp1797
Rp1798
ag4
(I2784
I992
I32
I32
tp1799
Rp1800
ag4
(I2816
I992
I32
I32
tp1801
Rp1802
ag4
(I3168
I992
I32
I32
tp1803
Rp1804
ag4
(I0
I1024
I32
I32
tp1805
Rp1806
ag4
(I32
I1024
I32
I32
tp1807
Rp1808
ag4
(I288
I1024
I32
I32
tp1809
Rp1810
ag4
(I320
I1024
I32
I32
tp1811
Rp1812
ag4
(I352
I1024
I32
I32
tp1813
Rp1814
ag4
(I384
I1024
I32
I32
tp1815
Rp1816
ag4
(I640
I1024
I32
I32
tp1817
Rp1818
ag4
(I672
I1024
I32
I32
tp1819
Rp1820
ag4
(I704
I1024
I32
I32
tp1821
Rp1822
ag4
(I736
I1024
I32
I32
tp1823
Rp1824
ag4
(I928
I1024
I32
I32
tp1825
Rp1826
ag4
(I960
I1024
I32
I32
tp1827
Rp1828
ag4
(I1536
I1024
I32
I32
tp1829
Rp1830
ag4
(I1568
I1024
I32
I32
tp1831
Rp1832
ag4
(I1920
I1024
I32
I32
tp1833
Rp1834
ag4
(I3168
I1024
I32
I32
tp1835
Rp1836
ag4
(I0
I1056
I32
I32
tp1837
Rp1838
ag4
(I640
I1056
I32
I32
tp1839
Rp1840
ag4
(I672
I1056
I32
I32
tp1841
Rp1842
ag4
(I704
I1056
I32
I32
tp1843
Rp1844
ag4
(I736
I1056
I32
I32
tp1845
Rp1846
ag4
(I768
I1056
I32
I32
tp1847
Rp1848
ag4
(I800
I1056
I32
I32
tp1849
Rp1850
ag4
(I832
I1056
I32
I32
tp1851
Rp1852
ag4
(I864
I1056
I32
I32
tp1853
Rp1854
ag4
(I896
I1056
I32
I32
tp1855
Rp1856
ag4
(I928
I1056
I32
I32
tp1857
Rp1858
ag4
(I960
I1056
I32
I32
tp1859
Rp1860
ag4
(I992
I1056
I32
I32
tp1861
Rp1862
ag4
(I1024
I1056
I32
I32
tp1863
Rp1864
ag4
(I1056
I1056
I32
I32
tp1865
Rp1866
ag4
(I1088
I1056
I32
I32
tp1867
Rp1868
ag4
(I1120
I1056
I32
I32
tp1869
Rp1870
ag4
(I1152
I1056
I32
I32
tp1871
Rp1872
ag4
(I1216
I1056
I32
I32
tp1873
Rp1874
ag4
(I1280
I1056
I32
I32
tp1875
Rp1876
ag4
(I1344
I1056
I32
I32
tp1877
Rp1878
ag4
(I1376
I1056
I32
I32
tp1879
Rp1880
ag4
(I1408
I1056
I32
I32
tp1881
Rp1882
ag4
(I1440
I1056
I32
I32
tp1883
Rp1884
ag4
(I1472
I1056
I32
I32
tp1885
Rp1886
ag4
(I1504
I1056
I32
I32
tp1887
Rp1888
ag4
(I1536
I1056
I32
I32
tp1889
Rp1890
ag4
(I1568
I1056
I32
I32
tp1891
Rp1892
ag4
(I1600
I1056
I32
I32
tp1893
Rp1894
ag4
(I1632
I1056
I32
I32
tp1895
Rp1896
ag4
(I1664
I1056
I32
I32
tp1897
Rp1898
ag4
(I1920
I1056
I32
I32
tp1899
Rp1900
ag4
(I2176
I1056
I32
I32
tp1901
Rp1902
ag4
(I2208
I1056
I32
I32
tp1903
Rp1904
ag4
(I2560
I1056
I32
I32
tp1905
Rp1906
ag4
(I2592
I1056
I32
I32
tp1907
Rp1908
ag4
(I2912
I1056
I32
I32
tp1909
Rp1910
ag4
(I2944
I1056
I32
I32
tp1911
Rp1912
ag4
(I3168
I1056
I32
I32
tp1913
Rp1914
ag4
(I0
I1088
I32
I32
tp1915
Rp1916
ag4
(I512
I1088
I32
I32
tp1917
Rp1918
ag4
(I544
I1088
I32
I32
tp1919
Rp1920
ag4
(I576
I1088
I32
I32
tp1921
Rp1922
ag4
(I608
I1088
I32
I32
tp1923
Rp1924
ag4
(I640
I1088
I32
I32
tp1925
Rp1926
ag4
(I672
I1088
I32
I32
tp1927
Rp1928
ag4
(I704
I1088
I32
I32
tp1929
Rp1930
ag4
(I736
I1088
I32
I32
tp1931
Rp1932
ag4
(I768
I1088
I32
I32
tp1933
Rp1934
ag4
(I800
I1088
I32
I32
tp1935
Rp1936
ag4
(I832
I1088
I32
I32
tp1937
Rp1938
ag4
(I864
I1088
I32
I32
tp1939
Rp1940
ag4
(I896
I1088
I32
I32
tp1941
Rp1942
ag4
(I928
I1088
I32
I32
tp1943
Rp1944
ag4
(I960
I1088
I32
I32
tp1945
Rp1946
ag4
(I992
I1088
I32
I32
tp1947
Rp1948
ag4
(I1024
I1088
I32
I32
tp1949
Rp1950
ag4
(I1056
I1088
I32
I32
tp1951
Rp1952
ag4
(I1088
I1088
I32
I32
tp1953
Rp1954
ag4
(I1120
I1088
I32
I32
tp1955
Rp1956
ag4
(I1152
I1088
I32
I32
tp1957
Rp1958
ag4
(I1184
I1088
I32
I32
tp1959
Rp1960
ag4
(I1216
I1088
I32
I32
tp1961
Rp1962
ag4
(I1248
I1088
I32
I32
tp1963
Rp1964
ag4
(I1280
I1088
I32
I32
tp1965
Rp1966
ag4
(I1312
I1088
I32
I32
tp1967
Rp1968
ag4
(I1344
I1088
I32
I32
tp1969
Rp1970
ag4
(I1376
I1088
I32
I32
tp1971
Rp1972
ag4
(I1408
I1088
I32
I32
tp1973
Rp1974
ag4
(I1440
I1088
I32
I32
tp1975
Rp1976
ag4
(I1472
I1088
I32
I32
tp1977
Rp1978
ag4
(I1504
I1088
I32
I32
tp1979
Rp1980
ag4
(I1536
I1088
I32
I32
tp1981
Rp1982
ag4
(I1568
I1088
I32
I32
tp1983
Rp1984
ag4
(I1600
I1088
I32
I32
tp1985
Rp1986
ag4
(I1632
I1088
I32
I32
tp1987
Rp1988
ag4
(I1664
I1088
I32
I32
tp1989
Rp1990
ag4
(I1920
I1088
I32
I32
tp1991
Rp1992
ag4
(I3168
I1088
I32
I32
tp1993
Rp1994
ag4
(I0
I1120
I32
I32
tp1995
Rp1996
ag4
(I32
I1120
I32
I32
tp1997
Rp1998
ag4
(I64
I1120
I32
I32
tp1999
Rp2000
ag4
(I96
I1120
I32
I32
tp2001
Rp2002
ag4
(I128
I1120
I32
I32
tp2003
Rp2004
ag4
(I160
I1120
I32
I32
tp2005
Rp2006
ag4
(I192
I1120
I32
I32
tp2007
Rp2008
ag4
(I224
I1120
I32
I32
tp2009
Rp2010
ag4
(I256
I1120
I32
I32
tp2011
Rp2012
ag4
(I288
I1120
I32
I32
tp2013
Rp2014
ag4
(I512
I1120
I32
I32
tp2015
Rp2016
ag4
(I544
I1120
I32
I32
tp2017
Rp2018
ag4
(I576
I1120
I32
I32
tp2019
Rp2020
ag4
(I608
I1120
I32
I32
tp2021
Rp2022
ag4
(I640
I1120
I32
I32
tp2023
Rp2024
ag4
(I1888
I1120
I32
I32
tp2025
Rp2026
ag4
(I1920
I1120
I32
I32
tp2027
Rp2028
ag4
(I2048
I1120
I32
I32
tp2029
Rp2030
ag4
(I2080
I1120
I32
I32
tp2031
Rp2032
ag4
(I3168
I1120
I32
I32
tp2033
Rp2034
ag4
(I0
I1152
I32
I32
tp2035
Rp2036
ag4
(I640
I1152
I32
I32
tp2037
Rp2038
ag4
(I896
I1152
I32
I32
tp2039
Rp2040
ag4
(I1216
I1152
I32
I32
tp2041
Rp2042
ag4
(I1856
I1152
I32
I32
tp2043
Rp2044
ag4
(I1888
I1152
I32
I32
tp2045
Rp2046
ag4
(I1920
I1152
I32
I32
tp2047
Rp2048
ag4
(I2048
I1152
I32
I32
tp2049
Rp2050
ag4
(I2080
I1152
I32
I32
tp2051
Rp2052
ag4
(I2112
I1152
I32
I32
tp2053
Rp2054
ag4
(I2144
I1152
I32
I32
tp2055
Rp2056
ag4
(I2176
I1152
I32
I32
tp2057
Rp2058
ag4
(I2208
I1152
I32
I32
tp2059
Rp2060
ag4
(I2240
I1152
I32
I32
tp2061
Rp2062
ag4
(I2272
I1152
I32
I32
tp2063
Rp2064
ag4
(I2304
I1152
I32
I32
tp2065
Rp2066
ag4
(I2336
I1152
I32
I32
tp2067
Rp2068
ag4
(I2368
I1152
I32
I32
tp2069
Rp2070
ag4
(I2400
I1152
I32
I32
tp2071
Rp2072
ag4
(I2432
I1152
I32
I32
tp2073
Rp2074
ag4
(I2464
I1152
I32
I32
tp2075
Rp2076
ag4
(I2496
I1152
I32
I32
tp2077
Rp2078
ag4
(I2528
I1152
I32
I32
tp2079
Rp2080
ag4
(I2560
I1152
I32
I32
tp2081
Rp2082
ag4
(I2592
I1152
I32
I32
tp2083
Rp2084
ag4
(I2624
I1152
I32
I32
tp2085
Rp2086
ag4
(I2656
I1152
I32
I32
tp2087
Rp2088
ag4
(I2688
I1152
I32
I32
tp2089
Rp2090
ag4
(I2720
I1152
I32
I32
tp2091
Rp2092
ag4
(I2752
I1152
I32
I32
tp2093
Rp2094
ag4
(I2784
I1152
I32
I32
tp2095
Rp2096
ag4
(I2816
I1152
I32
I32
tp2097
Rp2098
ag4
(I2848
I1152
I32
I32
tp2099
Rp2100
ag4
(I2880
I1152
I32
I32
tp2101
Rp2102
ag4
(I2912
I1152
I32
I32
tp2103
Rp2104
ag4
(I2944
I1152
I32
I32
tp2105
Rp2106
ag4
(I2976
I1152
I32
I32
tp2107
Rp2108
ag4
(I3008
I1152
I32
I32
tp2109
Rp2110
ag4
(I3040
I1152
I32
I32
tp2111
Rp2112
ag4
(I3072
I1152
I32
I32
tp2113
Rp2114
ag4
(I3104
I1152
I32
I32
tp2115
Rp2116
ag4
(I3136
I1152
I32
I32
tp2117
Rp2118
ag4
(I3168
I1152
I32
I32
tp2119
Rp2120
ag4
(I0
I1184
I32
I32
tp2121
Rp2122
ag4
(I640
I1184
I32
I32
tp2123
Rp2124
ag4
(I896
I1184
I32
I32
tp2125
Rp2126
ag4
(I1152
I1184
I32
I32
tp2127
Rp2128
ag4
(I1184
I1184
I32
I32
tp2129
Rp2130
ag4
(I1216
I1184
I32
I32
tp2131
Rp2132
ag4
(I1376
I1184
I32
I32
tp2133
Rp2134
ag4
(I1824
I1184
I32
I32
tp2135
Rp2136
ag4
(I1856
I1184
I32
I32
tp2137
Rp2138
ag4
(I1920
I1184
I32
I32
tp2139
Rp2140
ag4
(I1952
I1184
I32
I32
tp2141
Rp2142
ag4
(I3168
I1184
I32
I32
tp2143
Rp2144
ag4
(I0
I1216
I32
I32
tp2145
Rp2146
ag4
(I384
I1216
I32
I32
tp2147
Rp2148
ag4
(I416
I1216
I32
I32
tp2149
Rp2150
ag4
(I448
I1216
I32
I32
tp2151
Rp2152
ag4
(I480
I1216
I32
I32
tp2153
Rp2154
ag4
(I640
I1216
I32
I32
tp2155
Rp2156
ag4
(I896
I1216
I32
I32
tp2157
Rp2158
ag4
(I1088
I1216
I32
I32
tp2159
Rp2160
ag4
(I1120
I1216
I32
I32
tp2161
Rp2162
ag4
(I1152
I1216
I32
I32
tp2163
Rp2164
ag4
(I1216
I1216
I32
I32
tp2165
Rp2166
ag4
(I1376
I1216
I32
I32
tp2167
Rp2168
ag4
(I1792
I1216
I32
I32
tp2169
Rp2170
ag4
(I1824
I1216
I32
I32
tp2171
Rp2172
ag4
(I1920
I1216
I32
I32
tp2173
Rp2174
ag4
(I3168
I1216
I32
I32
tp2175
Rp2176
ag4
(I0
I1248
I32
I32
tp2177
Rp2178
ag4
(I384
I1248
I32
I32
tp2179
Rp2180
ag4
(I416
I1248
I32
I32
tp2181
Rp2182
ag4
(I448
I1248
I32
I32
tp2183
Rp2184
ag4
(I480
I1248
I32
I32
tp2185
Rp2186
ag4
(I640
I1248
I32
I32
tp2187
Rp2188
ag4
(I896
I1248
I32
I32
tp2189
Rp2190
ag4
(I928
I1248
I32
I32
tp2191
Rp2192
ag4
(I960
I1248
I32
I32
tp2193
Rp2194
ag4
(I992
I1248
I32
I32
tp2195
Rp2196
ag4
(I1024
I1248
I32
I32
tp2197
Rp2198
ag4
(I1056
I1248
I32
I32
tp2199
Rp2200
ag4
(I1088
I1248
I32
I32
tp2201
Rp2202
ag4
(I1120
I1248
I32
I32
tp2203
Rp2204
ag4
(I1152
I1248
I32
I32
tp2205
Rp2206
ag4
(I1184
I1248
I32
I32
tp2207
Rp2208
ag4
(I1216
I1248
I32
I32
tp2209
Rp2210
ag4
(I1248
I1248
I32
I32
tp2211
Rp2212
ag4
(I1280
I1248
I32
I32
tp2213
Rp2214
ag4
(I1312
I1248
I32
I32
tp2215
Rp2216
ag4
(I1344
I1248
I32
I32
tp2217
Rp2218
ag4
(I1376
I1248
I32
I32
tp2219
Rp2220
ag4
(I1408
I1248
I32
I32
tp2221
Rp2222
ag4
(I1440
I1248
I32
I32
tp2223
Rp2224
ag4
(I1472
I1248
I32
I32
tp2225
Rp2226
ag4
(I1504
I1248
I32
I32
tp2227
Rp2228
ag4
(I1536
I1248
I32
I32
tp2229
Rp2230
ag4
(I1568
I1248
I32
I32
tp2231
Rp2232
ag4
(I1600
I1248
I32
I32
tp2233
Rp2234
ag4
(I1632
I1248
I32
I32
tp2235
Rp2236
ag4
(I1664
I1248
I32
I32
tp2237
Rp2238
ag4
(I1696
I1248
I32
I32
tp2239
Rp2240
ag4
(I1728
I1248
I32
I32
tp2241
Rp2242
ag4
(I1760
I1248
I32
I32
tp2243
Rp2244
ag4
(I1792
I1248
I32
I32
tp2245
Rp2246
ag4
(I1824
I1248
I32
I32
tp2247
Rp2248
ag4
(I1856
I1248
I32
I32
tp2249
Rp2250
ag4
(I1888
I1248
I32
I32
tp2251
Rp2252
ag4
(I1920
I1248
I32
I32
tp2253
Rp2254
ag4
(I3168
I1248
I32
I32
tp2255
Rp2256
ag4
(I0
I1280
I32
I32
tp2257
Rp2258
ag4
(I32
I1280
I32
I32
tp2259
Rp2260
ag4
(I224
I1280
I32
I32
tp2261
Rp2262
ag4
(I256
I1280
I32
I32
tp2263
Rp2264
ag4
(I640
I1280
I32
I32
tp2265
Rp2266
ag4
(I3168
I1280
I32
I32
tp2267
Rp2268
ag4
(I32
I1312
I32
I32
tp2269
Rp2270
ag4
(I64
I1312
I32
I32
tp2271
Rp2272
ag4
(I224
I1312
I32
I32
tp2273
Rp2274
ag4
(I256
I1312
I32
I32
tp2275
Rp2276
ag4
(I288
I1312
I32
I32
tp2277
Rp2278
ag4
(I320
I1312
I32
I32
tp2279
Rp2280
ag4
(I352
I1312
I32
I32
tp2281
Rp2282
ag4
(I384
I1312
I32
I32
tp2283
Rp2284
ag4
(I416
I1312
I32
I32
tp2285
Rp2286
ag4
(I448
I1312
I32
I32
tp2287
Rp2288
ag4
(I480
I1312
I32
I32
tp2289
Rp2290
ag4
(I512
I1312
I32
I32
tp2291
Rp2292
ag4
(I544
I1312
I32
I32
tp2293
Rp2294
ag4
(I576
I1312
I32
I32
tp2295
Rp2296
ag4
(I608
I1312
I32
I32
tp2297
Rp2298
ag4
(I640
I1312
I32
I32
tp2299
Rp2300
ag4
(I672
I1312
I32
I32
tp2301
Rp2302
ag4
(I704
I1312
I32
I32
tp2303
Rp2304
ag4
(I736
I1312
I32
I32
tp2305
Rp2306
ag4
(I768
I1312
I32
I32
tp2307
Rp2308
ag4
(I800
I1312
I32
I32
tp2309
Rp2310
ag4
(I832
I1312
I32
I32
tp2311
Rp2312
ag4
(I864
I1312
I32
I32
tp2313
Rp2314
ag4
(I896
I1312
I32
I32
tp2315
Rp2316
ag4
(I928
I1312
I32
I32
tp2317
Rp2318
ag4
(I960
I1312
I32
I32
tp2319
Rp2320
ag4
(I992
I1312
I32
I32
tp2321
Rp2322
ag4
(I1024
I1312
I32
I32
tp2323
Rp2324
ag4
(I1056
I1312
I32
I32
tp2325
Rp2326
ag4
(I1088
I1312
I32
I32
tp2327
Rp2328
ag4
(I1120
I1312
I32
I32
tp2329
Rp2330
ag4
(I1152
I1312
I32
I32
tp2331
Rp2332
ag4
(I1184
I1312
I32
I32
tp2333
Rp2334
ag4
(I1216
I1312
I32
I32
tp2335
Rp2336
ag4
(I1248
I1312
I32
I32
tp2337
Rp2338
ag4
(I1280
I1312
I32
I32
tp2339
Rp2340
ag4
(I1312
I1312
I32
I32
tp2341
Rp2342
ag4
(I1344
I1312
I32
I32
tp2343
Rp2344
ag4
(I1376
I1312
I32
I32
tp2345
Rp2346
ag4
(I1408
I1312
I32
I32
tp2347
Rp2348
ag4
(I1440
I1312
I32
I32
tp2349
Rp2350
ag4
(I1472
I1312
I32
I32
tp2351
Rp2352
ag4
(I1504
I1312
I32
I32
tp2353
Rp2354
ag4
(I1536
I1312
I32
I32
tp2355
Rp2356
ag4
(I1568
I1312
I32
I32
tp2357
Rp2358
ag4
(I1600
I1312
I32
I32
tp2359
Rp2360
ag4
(I1632
I1312
I32
I32
tp2361
Rp2362
ag4
(I1664
I1312
I32
I32
tp2363
Rp2364
ag4
(I1696
I1312
I32
I32
tp2365
Rp2366
ag4
(I1728
I1312
I32
I32
tp2367
Rp2368
ag4
(I1760
I1312
I32
I32
tp2369
Rp2370
ag4
(I1792
I1312
I32
I32
tp2371
Rp2372
ag4
(I1824
I1312
I32
I32
tp2373
Rp2374
ag4
(I1856
I1312
I32
I32
tp2375
Rp2376
ag4
(I1888
I1312
I32
I32
tp2377
Rp2378
ag4
(I1920
I1312
I32
I32
tp2379
Rp2380
ag4
(I1952
I1312
I32
I32
tp2381
Rp2382
ag4
(I1984
I1312
I32
I32
tp2383
Rp2384
ag4
(I2016
I1312
I32
I32
tp2385
Rp2386
ag4
(I2048
I1312
I32
I32
tp2387
Rp2388
ag4
(I2080
I1312
I32
I32
tp2389
Rp2390
ag4
(I2112
I1312
I32
I32
tp2391
Rp2392
ag4
(I2144
I1312
I32
I32
tp2393
Rp2394
ag4
(I2176
I1312
I32
I32
tp2395
Rp2396
ag4
(I2208
I1312
I32
I32
tp2397
Rp2398
ag4
(I2240
I1312
I32
I32
tp2399
Rp2400
ag4
(I2272
I1312
I32
I32
tp2401
Rp2402
ag4
(I2304
I1312
I32
I32
tp2403
Rp2404
ag4
(I2336
I1312
I32
I32
tp2405
Rp2406
ag4
(I2368
I1312
I32
I32
tp2407
Rp2408
ag4
(I2400
I1312
I32
I32
tp2409
Rp2410
ag4
(I2432
I1312
I32
I32
tp2411
Rp2412
ag4
(I3168
I1312
I32
I32
tp2413
Rp2414
ag4
(I64
I1344
I32
I32
tp2415
Rp2416
ag4
(I96
I1344
I32
I32
tp2417
Rp2418
ag4
(I1024
I1344
I32
I32
tp2419
Rp2420
ag4
(I1056
I1344
I32
I32
tp2421
Rp2422
ag4
(I1088
I1344
I32
I32
tp2423
Rp2424
ag4
(I1120
I1344
I32
I32
tp2425
Rp2426
ag4
(I1152
I1344
I32
I32
tp2427
Rp2428
ag4
(I1184
I1344
I32
I32
tp2429
Rp2430
ag4
(I1216
I1344
I32
I32
tp2431
Rp2432
ag4
(I2432
I1344
I32
I32
tp2433
Rp2434
ag4
(I2464
I1344
I32
I32
tp2435
Rp2436
ag4
(I3136
I1344
I32
I32
tp2437
Rp2438
ag4
(I3168
I1344
I32
I32
tp2439
Rp2440
ag4
(I96
I1376
I32
I32
tp2441
Rp2442
ag4
(I128
I1376
I32
I32
tp2443
Rp2444
ag4
(I1152
I1376
I32
I32
tp2445
Rp2446
ag4
(I1184
I1376
I32
I32
tp2447
Rp2448
ag4
(I1600
I1376
I32
I32
tp2449
Rp2450
ag4
(I1824
I1376
I32
I32
tp2451
Rp2452
ag4
(I2432
I1376
I32
I32
tp2453
Rp2454
ag4
(I2464
I1376
I32
I32
tp2455
Rp2456
ag4
(I2496
I1376
I32
I32
tp2457
Rp2458
ag4
(I3104
I1376
I32
I32
tp2459
Rp2460
ag4
(I3136
I1376
I32
I32
tp2461
Rp2462
ag4
(I128
I1408
I32
I32
tp2463
Rp2464
ag4
(I160
I1408
I32
I32
tp2465
Rp2466
ag4
(I1056
I1408
I32
I32
tp2467
Rp2468
ag4
(I1088
I1408
I32
I32
tp2469
Rp2470
ag4
(I1568
I1408
I32
I32
tp2471
Rp2472
ag4
(I1600
I1408
I32
I32
tp2473
Rp2474
ag4
(I1824
I1408
I32
I32
tp2475
Rp2476
ag4
(I1856
I1408
I32
I32
tp2477
Rp2478
ag4
(I2432
I1408
I32
I32
tp2479
Rp2480
ag4
(I2496
I1408
I32
I32
tp2481
Rp2482
ag4
(I2528
I1408
I32
I32
tp2483
Rp2484
ag4
(I3072
I1408
I32
I32
tp2485
Rp2486
ag4
(I3104
I1408
I32
I32
tp2487
Rp2488
ag4
(I160
I1440
I32
I32
tp2489
Rp2490
ag4
(I192
I1440
I32
I32
tp2491
Rp2492
ag4
(I1024
I1440
I32
I32
tp2493
Rp2494
ag4
(I1056
I1440
I32
I32
tp2495
Rp2496
ag4
(I1088
I1440
I32
I32
tp2497
Rp2498
ag4
(I1120
I1440
I32
I32
tp2499
Rp2500
ag4
(I1152
I1440
I32
I32
tp2501
Rp2502
ag4
(I1184
I1440
I32
I32
tp2503
Rp2504
ag4
(I1216
I1440
I32
I32
tp2505
Rp2506
ag4
(I1536
I1440
I32
I32
tp2507
Rp2508
ag4
(I1568
I1440
I32
I32
tp2509
Rp2510
ag4
(I1600
I1440
I32
I32
tp2511
Rp2512
ag4
(I1824
I1440
I32
I32
tp2513
Rp2514
ag4
(I1856
I1440
I32
I32
tp2515
Rp2516
ag4
(I1888
I1440
I32
I32
tp2517
Rp2518
ag4
(I2432
I1440
I32
I32
tp2519
Rp2520
ag4
(I2528
I1440
I32
I32
tp2521
Rp2522
ag4
(I2560
I1440
I32
I32
tp2523
Rp2524
ag4
(I3040
I1440
I32
I32
tp2525
Rp2526
ag4
(I3072
I1440
I32
I32
tp2527
Rp2528
ag4
(I192
I1472
I32
I32
tp2529
Rp2530
ag4
(I224
I1472
I32
I32
tp2531
Rp2532
ag4
(I256
I1472
I32
I32
tp2533
Rp2534
ag4
(I288
I1472
I32
I32
tp2535
Rp2536
ag4
(I320
I1472
I32
I32
tp2537
Rp2538
ag4
(I352
I1472
I32
I32
tp2539
Rp2540
ag4
(I384
I1472
I32
I32
tp2541
Rp2542
ag4
(I416
I1472
I32
I32
tp2543
Rp2544
ag4
(I448
I1472
I32
I32
tp2545
Rp2546
ag4
(I480
I1472
I32
I32
tp2547
Rp2548
ag4
(I512
I1472
I32
I32
tp2549
Rp2550
ag4
(I544
I1472
I32
I32
tp2551
Rp2552
ag4
(I576
I1472
I32
I32
tp2553
Rp2554
ag4
(I608
I1472
I32
I32
tp2555
Rp2556
ag4
(I640
I1472
I32
I32
tp2557
Rp2558
ag4
(I672
I1472
I32
I32
tp2559
Rp2560
ag4
(I704
I1472
I32
I32
tp2561
Rp2562
ag4
(I736
I1472
I32
I32
tp2563
Rp2564
ag4
(I768
I1472
I32
I32
tp2565
Rp2566
ag4
(I800
I1472
I32
I32
tp2567
Rp2568
ag4
(I832
I1472
I32
I32
tp2569
Rp2570
ag4
(I864
I1472
I32
I32
tp2571
Rp2572
ag4
(I896
I1472
I32
I32
tp2573
Rp2574
ag4
(I928
I1472
I32
I32
tp2575
Rp2576
ag4
(I960
I1472
I32
I32
tp2577
Rp2578
ag4
(I992
I1472
I32
I32
tp2579
Rp2580
ag4
(I1024
I1472
I32
I32
tp2581
Rp2582
ag4
(I1056
I1472
I32
I32
tp2583
Rp2584
ag4
(I1088
I1472
I32
I32
tp2585
Rp2586
ag4
(I1120
I1472
I32
I32
tp2587
Rp2588
ag4
(I1152
I1472
I32
I32
tp2589
Rp2590
ag4
(I1184
I1472
I32
I32
tp2591
Rp2592
ag4
(I1216
I1472
I32
I32
tp2593
Rp2594
ag4
(I1248
I1472
I32
I32
tp2595
Rp2596
ag4
(I1280
I1472
I32
I32
tp2597
Rp2598
ag4
(I1312
I1472
I32
I32
tp2599
Rp2600
ag4
(I1344
I1472
I32
I32
tp2601
Rp2602
ag4
(I1376
I1472
I32
I32
tp2603
Rp2604
ag4
(I1408
I1472
I32
I32
tp2605
Rp2606
ag4
(I1440
I1472
I32
I32
tp2607
Rp2608
ag4
(I1472
I1472
I32
I32
tp2609
Rp2610
ag4
(I1504
I1472
I32
I32
tp2611
Rp2612
ag4
(I1536
I1472
I32
I32
tp2613
Rp2614
ag4
(I1568
I1472
I32
I32
tp2615
Rp2616
ag4
(I1600
I1472
I32
I32
tp2617
Rp2618
ag4
(I1632
I1472
I32
I32
tp2619
Rp2620
ag4
(I1664
I1472
I32
I32
tp2621
Rp2622
ag4
(I1696
I1472
I32
I32
tp2623
Rp2624
ag4
(I1728
I1472
I32
I32
tp2625
Rp2626
ag4
(I1760
I1472
I32
I32
tp2627
Rp2628
ag4
(I1792
I1472
I32
I32
tp2629
Rp2630
ag4
(I1824
I1472
I32
I32
tp2631
Rp2632
ag4
(I1856
I1472
I32
I32
tp2633
Rp2634
ag4
(I1888
I1472
I32
I32
tp2635
Rp2636
ag4
(I1920
I1472
I32
I32
tp2637
Rp2638
ag4
(I1952
I1472
I32
I32
tp2639
Rp2640
ag4
(I1984
I1472
I32
I32
tp2641
Rp2642
ag4
(I2016
I1472
I32
I32
tp2643
Rp2644
ag4
(I2432
I1472
I32
I32
tp2645
Rp2646
ag4
(I2560
I1472
I32
I32
tp2647
Rp2648
ag4
(I2592
I1472
I32
I32
tp2649
Rp2650
ag4
(I3008
I1472
I32
I32
tp2651
Rp2652
ag4
(I3040
I1472
I32
I32
tp2653
Rp2654
ag4
(I2016
I1504
I32
I32
tp2655
Rp2656
ag4
(I2048
I1504
I32
I32
tp2657
Rp2658
ag4
(I2080
I1504
I32
I32
tp2659
Rp2660
ag4
(I2432
I1504
I32
I32
tp2661
Rp2662
ag4
(I2592
I1504
I32
I32
tp2663
Rp2664
ag4
(I2624
I1504
I32
I32
tp2665
Rp2666
ag4
(I2976
I1504
I32
I32
tp2667
Rp2668
ag4
(I3008
I1504
I32
I32
tp2669
Rp2670
ag4
(I0
I1536
I32
I32
tp2671
Rp2672
ag4
(I32
I1536
I32
I32
tp2673
Rp2674
ag4
(I64
I1536
I32
I32
tp2675
Rp2676
ag4
(I96
I1536
I32
I32
tp2677
Rp2678
ag4
(I128
I1536
I32
I32
tp2679
Rp2680
ag4
(I160
I1536
I32
I32
tp2681
Rp2682
ag4
(I192
I1536
I32
I32
tp2683
Rp2684
ag4
(I224
I1536
I32
I32
tp2685
Rp2686
ag4
(I256
I1536
I32
I32
tp2687
Rp2688
ag4
(I288
I1536
I32
I32
tp2689
Rp2690
ag4
(I320
I1536
I32
I32
tp2691
Rp2692
ag4
(I352
I1536
I32
I32
tp2693
Rp2694
ag4
(I384
I1536
I32
I32
tp2695
Rp2696
ag4
(I416
I1536
I32
I32
tp2697
Rp2698
ag4
(I448
I1536
I32
I32
tp2699
Rp2700
ag4
(I480
I1536
I32
I32
tp2701
Rp2702
ag4
(I512
I1536
I32
I32
tp2703
Rp2704
ag4
(I544
I1536
I32
I32
tp2705
Rp2706
ag4
(I576
I1536
I32
I32
tp2707
Rp2708
ag4
(I608
I1536
I32
I32
tp2709
Rp2710
ag4
(I640
I1536
I32
I32
tp2711
Rp2712
ag4
(I672
I1536
I32
I32
tp2713
Rp2714
ag4
(I704
I1536
I32
I32
tp2715
Rp2716
ag4
(I736
I1536
I32
I32
tp2717
Rp2718
ag4
(I768
I1536
I32
I32
tp2719
Rp2720
ag4
(I800
I1536
I32
I32
tp2721
Rp2722
ag4
(I832
I1536
I32
I32
tp2723
Rp2724
ag4
(I864
I1536
I32
I32
tp2725
Rp2726
ag4
(I896
I1536
I32
I32
tp2727
Rp2728
ag4
(I928
I1536
I32
I32
tp2729
Rp2730
ag4
(I960
I1536
I32
I32
tp2731
Rp2732
ag4
(I992
I1536
I32
I32
tp2733
Rp2734
ag4
(I1024
I1536
I32
I32
tp2735
Rp2736
ag4
(I1056
I1536
I32
I32
tp2737
Rp2738
ag4
(I1088
I1536
I32
I32
tp2739
Rp2740
ag4
(I1120
I1536
I32
I32
tp2741
Rp2742
ag4
(I1152
I1536
I32
I32
tp2743
Rp2744
ag4
(I1184
I1536
I32
I32
tp2745
Rp2746
ag4
(I1216
I1536
I32
I32
tp2747
Rp2748
ag4
(I1248
I1536
I32
I32
tp2749
Rp2750
ag4
(I1280
I1536
I32
I32
tp2751
Rp2752
ag4
(I1312
I1536
I32
I32
tp2753
Rp2754
ag4
(I1344
I1536
I32
I32
tp2755
Rp2756
ag4
(I1376
I1536
I32
I32
tp2757
Rp2758
ag4
(I1408
I1536
I32
I32
tp2759
Rp2760
ag4
(I1440
I1536
I32
I32
tp2761
Rp2762
ag4
(I1472
I1536
I32
I32
tp2763
Rp2764
ag4
(I1504
I1536
I32
I32
tp2765
Rp2766
ag4
(I1536
I1536
I32
I32
tp2767
Rp2768
ag4
(I1568
I1536
I32
I32
tp2769
Rp2770
ag4
(I1600
I1536
I32
I32
tp2771
Rp2772
ag4
(I1632
I1536
I32
I32
tp2773
Rp2774
ag4
(I1664
I1536
I32
I32
tp2775
Rp2776
ag4
(I1696
I1536
I32
I32
tp2777
Rp2778
ag4
(I1728
I1536
I32
I32
tp2779
Rp2780
ag4
(I1760
I1536
I32
I32
tp2781
Rp2782
ag4
(I1792
I1536
I32
I32
tp2783
Rp2784
ag4
(I1824
I1536
I32
I32
tp2785
Rp2786
ag4
(I1856
I1536
I32
I32
tp2787
Rp2788
ag4
(I1888
I1536
I32
I32
tp2789
Rp2790
ag4
(I1920
I1536
I32
I32
tp2791
Rp2792
ag4
(I1952
I1536
I32
I32
tp2793
Rp2794
ag4
(I1984
I1536
I32
I32
tp2795
Rp2796
ag4
(I2016
I1536
I32
I32
tp2797
Rp2798
ag4
(I2048
I1536
I32
I32
tp2799
Rp2800
ag4
(I2080
I1536
I32
I32
tp2801
Rp2802
ag4
(I2112
I1536
I32
I32
tp2803
Rp2804
ag4
(I2144
I1536
I32
I32
tp2805
Rp2806
ag4
(I2432
I1536
I32
I32
tp2807
Rp2808
ag4
(I2624
I1536
I32
I32
tp2809
Rp2810
ag4
(I2656
I1536
I32
I32
tp2811
Rp2812
ag4
(I2944
I1536
I32
I32
tp2813
Rp2814
ag4
(I2976
I1536
I32
I32
tp2815
Rp2816
ag4
(I0
I1568
I32
I32
tp2817
Rp2818
ag4
(I2144
I1568
I32
I32
tp2819
Rp2820
ag4
(I2432
I1568
I32
I32
tp2821
Rp2822
ag4
(I2656
I1568
I32
I32
tp2823
Rp2824
ag4
(I2688
I1568
I32
I32
tp2825
Rp2826
ag4
(I2912
I1568
I32
I32
tp2827
Rp2828
ag4
(I2944
I1568
I32
I32
tp2829
Rp2830
ag4
(I0
I1600
I32
I32
tp2831
Rp2832
ag4
(I2144
I1600
I32
I32
tp2833
Rp2834
ag4
(I2176
I1600
I32
I32
tp2835
Rp2836
ag4
(I2208
I1600
I32
I32
tp2837
Rp2838
ag4
(I2240
I1600
I32
I32
tp2839
Rp2840
ag4
(I2272
I1600
I32
I32
tp2841
Rp2842
ag4
(I2304
I1600
I32
I32
tp2843
Rp2844
ag4
(I2432
I1600
I32
I32
tp2845
Rp2846
ag4
(I2688
I1600
I32
I32
tp2847
Rp2848
ag4
(I2720
I1600
I32
I32
tp2849
Rp2850
ag4
(I2880
I1600
I32
I32
tp2851
Rp2852
ag4
(I2912
I1600
I32
I32
tp2853
Rp2854
ag4
(I0
I1632
I32
I32
tp2855
Rp2856
ag4
(I352
I1632
I32
I32
tp2857
Rp2858
ag4
(I384
I1632
I32
I32
tp2859
Rp2860
ag4
(I416
I1632
I32
I32
tp2861
Rp2862
ag4
(I448
I1632
I32
I32
tp2863
Rp2864
ag4
(I2144
I1632
I32
I32
tp2865
Rp2866
ag4
(I2432
I1632
I32
I32
tp2867
Rp2868
ag4
(I2720
I1632
I32
I32
tp2869
Rp2870
ag4
(I2752
I1632
I32
I32
tp2871
Rp2872
ag4
(I2880
I1632
I32
I32
tp2873
Rp2874
ag4
(I2912
I1632
I32
I32
tp2875
Rp2876
ag4
(I0
I1664
I32
I32
tp2877
Rp2878
ag4
(I608
I1664
I32
I32
tp2879
Rp2880
ag4
(I640
I1664
I32
I32
tp2881
Rp2882
ag4
(I672
I1664
I32
I32
tp2883
Rp2884
ag4
(I704
I1664
I32
I32
tp2885
Rp2886
ag4
(I736
I1664
I32
I32
tp2887
Rp2888
ag4
(I768
I1664
I32
I32
tp2889
Rp2890
ag4
(I800
I1664
I32
I32
tp2891
Rp2892
ag4
(I832
I1664
I32
I32
tp2893
Rp2894
ag4
(I864
I1664
I32
I32
tp2895
Rp2896
ag4
(I896
I1664
I32
I32
tp2897
Rp2898
ag4
(I928
I1664
I32
I32
tp2899
Rp2900
ag4
(I960
I1664
I32
I32
tp2901
Rp2902
ag4
(I992
I1664
I32
I32
tp2903
Rp2904
ag4
(I1024
I1664
I32
I32
tp2905
Rp2906
ag4
(I1056
I1664
I32
I32
tp2907
Rp2908
ag4
(I1088
I1664
I32
I32
tp2909
Rp2910
ag4
(I1120
I1664
I32
I32
tp2911
Rp2912
ag4
(I1216
I1664
I32
I32
tp2913
Rp2914
ag4
(I1312
I1664
I32
I32
tp2915
Rp2916
ag4
(I1344
I1664
I32
I32
tp2917
Rp2918
ag4
(I1376
I1664
I32
I32
tp2919
Rp2920
ag4
(I1408
I1664
I32
I32
tp2921
Rp2922
ag4
(I1440
I1664
I32
I32
tp2923
Rp2924
ag4
(I1472
I1664
I32
I32
tp2925
Rp2926
ag4
(I1504
I1664
I32
I32
tp2927
Rp2928
ag4
(I1536
I1664
I32
I32
tp2929
Rp2930
ag4
(I1568
I1664
I32
I32
tp2931
Rp2932
ag4
(I1600
I1664
I32
I32
tp2933
Rp2934
ag4
(I1632
I1664
I32
I32
tp2935
Rp2936
ag4
(I1664
I1664
I32
I32
tp2937
Rp2938
ag4
(I1696
I1664
I32
I32
tp2939
Rp2940
ag4
(I1728
I1664
I32
I32
tp2941
Rp2942
ag4
(I1760
I1664
I32
I32
tp2943
Rp2944
ag4
(I1792
I1664
I32
I32
tp2945
Rp2946
ag4
(I1824
I1664
I32
I32
tp2947
Rp2948
ag4
(I2144
I1664
I32
I32
tp2949
Rp2950
ag4
(I2336
I1664
I32
I32
tp2951
Rp2952
ag4
(I2368
I1664
I32
I32
tp2953
Rp2954
ag4
(I2432
I1664
I32
I32
tp2955
Rp2956
ag4
(I2752
I1664
I32
I32
tp2957
Rp2958
ag4
(I2784
I1664
I32
I32
tp2959
Rp2960
ag4
(I2912
I1664
I32
I32
tp2961
Rp2962
ag4
(I2944
I1664
I32
I32
tp2963
Rp2964
ag4
(I0
I1696
I32
I32
tp2965
Rp2966
ag4
(I128
I1696
I32
I32
tp2967
Rp2968
ag4
(I160
I1696
I32
I32
tp2969
Rp2970
ag4
(I192
I1696
I32
I32
tp2971
Rp2972
ag4
(I224
I1696
I32
I32
tp2973
Rp2974
ag4
(I672
I1696
I32
I32
tp2975
Rp2976
ag4
(I1120
I1696
I32
I32
tp2977
Rp2978
ag4
(I1216
I1696
I32
I32
tp2979
Rp2980
ag4
(I1312
I1696
I32
I32
tp2981
Rp2982
ag4
(I1824
I1696
I32
I32
tp2983
Rp2984
ag4
(I2144
I1696
I32
I32
tp2985
Rp2986
ag4
(I2432
I1696
I32
I32
tp2987
Rp2988
ag4
(I2784
I1696
I32
I32
tp2989
Rp2990
ag4
(I2816
I1696
I32
I32
tp2991
Rp2992
ag4
(I2944
I1696
I32
I32
tp2993
Rp2994
ag4
(I2976
I1696
I32
I32
tp2995
Rp2996
ag4
(I0
I1728
I32
I32
tp2997
Rp2998
ag4
(I384
I1728
I32
I32
tp2999
Rp3000
ag4
(I416
I1728
I32
I32
tp3001
Rp3002
ag4
(I448
I1728
I32
I32
tp3003
Rp3004
ag4
(I672
I1728
I32
I32
tp3005
Rp3006
ag4
(I704
I1728
I32
I32
tp3007
Rp3008
ag4
(I736
I1728
I32
I32
tp3009
Rp3010
ag4
(I768
I1728
I32
I32
tp3011
Rp3012
ag4
(I800
I1728
I32
I32
tp3013
Rp3014
ag4
(I832
I1728
I32
I32
tp3015
Rp3016
ag4
(I864
I1728
I32
I32
tp3017
Rp3018
ag4
(I896
I1728
I32
I32
tp3019
Rp3020
ag4
(I928
I1728
I32
I32
tp3021
Rp3022
ag4
(I960
I1728
I32
I32
tp3023
Rp3024
ag4
(I992
I1728
I32
I32
tp3025
Rp3026
ag4
(I1024
I1728
I32
I32
tp3027
Rp3028
ag4
(I1056
I1728
I32
I32
tp3029
Rp3030
ag4
(I1088
I1728
I32
I32
tp3031
Rp3032
ag4
(I1120
I1728
I32
I32
tp3033
Rp3034
ag4
(I1152
I1728
I32
I32
tp3035
Rp3036
ag4
(I1184
I1728
I32
I32
tp3037
Rp3038
ag4
(I1216
I1728
I32
I32
tp3039
Rp3040
ag4
(I1248
I1728
I32
I32
tp3041
Rp3042
ag4
(I1280
I1728
I32
I32
tp3043
Rp3044
ag4
(I1312
I1728
I32
I32
tp3045
Rp3046
ag4
(I1344
I1728
I32
I32
tp3047
Rp3048
ag4
(I1376
I1728
I32
I32
tp3049
Rp3050
ag4
(I1408
I1728
I32
I32
tp3051
Rp3052
ag4
(I1440
I1728
I32
I32
tp3053
Rp3054
ag4
(I1472
I1728
I32
I32
tp3055
Rp3056
ag4
(I1504
I1728
I32
I32
tp3057
Rp3058
ag4
(I1536
I1728
I32
I32
tp3059
Rp3060
ag4
(I1568
I1728
I32
I32
tp3061
Rp3062
ag4
(I1600
I1728
I32
I32
tp3063
Rp3064
ag4
(I1632
I1728
I32
I32
tp3065
Rp3066
ag4
(I1664
I1728
I32
I32
tp3067
Rp3068
ag4
(I1696
I1728
I32
I32
tp3069
Rp3070
ag4
(I1728
I1728
I32
I32
tp3071
Rp3072
ag4
(I1760
I1728
I32
I32
tp3073
Rp3074
ag4
(I1792
I1728
I32
I32
tp3075
Rp3076
ag4
(I1824
I1728
I32
I32
tp3077
Rp3078
ag4
(I1856
I1728
I32
I32
tp3079
Rp3080
ag4
(I1888
I1728
I32
I32
tp3081
Rp3082
ag4
(I1920
I1728
I32
I32
tp3083
Rp3084
ag4
(I1952
I1728
I32
I32
tp3085
Rp3086
ag4
(I2144
I1728
I32
I32
tp3087
Rp3088
ag4
(I2400
I1728
I32
I32
tp3089
Rp3090
ag4
(I2432
I1728
I32
I32
tp3091
Rp3092
ag4
(I2816
I1728
I32
I32
tp3093
Rp3094
ag4
(I2848
I1728
I32
I32
tp3095
Rp3096
ag4
(I2976
I1728
I32
I32
tp3097
Rp3098
ag4
(I3008
I1728
I32
I32
tp3099
Rp3100
ag4
(I0
I1760
I32
I32
tp3101
Rp3102
ag4
(I32
I1760
I32
I32
tp3103
Rp3104
ag4
(I64
I1760
I32
I32
tp3105
Rp3106
ag4
(I96
I1760
I32
I32
tp3107
Rp3108
ag4
(I576
I1760
I32
I32
tp3109
Rp3110
ag4
(I608
I1760
I32
I32
tp3111
Rp3112
ag4
(I640
I1760
I32
I32
tp3113
Rp3114
ag4
(I672
I1760
I32
I32
tp3115
Rp3116
ag4
(I2144
I1760
I32
I32
tp3117
Rp3118
ag4
(I2432
I1760
I32
I32
tp3119
Rp3120
ag4
(I2816
I1760
I32
I32
tp3121
Rp3122
ag4
(I2848
I1760
I32
I32
tp3123
Rp3124
ag4
(I2880
I1760
I32
I32
tp3125
Rp3126
ag4
(I3008
I1760
I32
I32
tp3127
Rp3128
ag4
(I3040
I1760
I32
I32
tp3129
Rp3130
ag4
(I0
I1792
I32
I32
tp3131
Rp3132
ag4
(I672
I1792
I32
I32
tp3133
Rp3134
ag4
(I1952
I1792
I32
I32
tp3135
Rp3136
ag4
(I1984
I1792
I32
I32
tp3137
Rp3138
ag4
(I2016
I1792
I32
I32
tp3139
Rp3140
ag4
(I2144
I1792
I32
I32
tp3141
Rp3142
ag4
(I2432
I1792
I32
I32
tp3143
Rp3144
ag4
(I2848
I1792
I32
I32
tp3145
Rp3146
ag4
(I2880
I1792
I32
I32
tp3147
Rp3148
ag4
(I2912
I1792
I32
I32
tp3149
Rp3150
ag4
(I3040
I1792
I32
I32
tp3151
Rp3152
ag4
(I3072
I1792
I32
I32
tp3153
Rp3154
ag4
(I0
I1824
I32
I32
tp3155
Rp3156
ag4
(I288
I1824
I32
I32
tp3157
Rp3158
ag4
(I320
I1824
I32
I32
tp3159
Rp3160
ag4
(I352
I1824
I32
I32
tp3161
Rp3162
ag4
(I384
I1824
I32
I32
tp3163
Rp3164
ag4
(I416
I1824
I32
I32
tp3165
Rp3166
ag4
(I448
I1824
I32
I32
tp3167
Rp3168
ag4
(I480
I1824
I32
I32
tp3169
Rp3170
ag4
(I512
I1824
I32
I32
tp3171
Rp3172
ag4
(I672
I1824
I32
I32
tp3173
Rp3174
ag4
(I1504
I1824
I32
I32
tp3175
Rp3176
ag4
(I1536
I1824
I32
I32
tp3177
Rp3178
ag4
(I1568
I1824
I32
I32
tp3179
Rp3180
ag4
(I1600
I1824
I32
I32
tp3181
Rp3182
ag4
(I1632
I1824
I32
I32
tp3183
Rp3184
ag4
(I2144
I1824
I32
I32
tp3185
Rp3186
ag4
(I2368
I1824
I32
I32
tp3187
Rp3188
ag4
(I2400
I1824
I32
I32
tp3189
Rp3190
ag4
(I2432
I1824
I32
I32
tp3191
Rp3192
ag4
(I2784
I1824
I32
I32
tp3193
Rp3194
ag4
(I2816
I1824
I32
I32
tp3195
Rp3196
ag4
(I2848
I1824
I32
I32
tp3197
Rp3198
ag4
(I2976
I1824
I32
I32
tp3199
Rp3200
ag4
(I3008
I1824
I32
I32
tp3201
Rp3202
ag4
(I3040
I1824
I32
I32
tp3203
Rp3204
ag4
(I0
I1856
I32
I32
tp3205
Rp3206
ag4
(I672
I1856
I32
I32
tp3207
Rp3208
ag4
(I992
I1856
I32
I32
tp3209
Rp3210
ag4
(I1024
I1856
I32
I32
tp3211
Rp3212
ag4
(I1056
I1856
I32
I32
tp3213
Rp3214
ag4
(I1088
I1856
I32
I32
tp3215
Rp3216
ag4
(I1120
I1856
I32
I32
tp3217
Rp3218
ag4
(I1152
I1856
I32
I32
tp3219
Rp3220
ag4
(I1184
I1856
I32
I32
tp3221
Rp3222
ag4
(I1856
I1856
I32
I32
tp3223
Rp3224
ag4
(I2144
I1856
I32
I32
tp3225
Rp3226
ag4
(I2336
I1856
I32
I32
tp3227
Rp3228
ag4
(I2368
I1856
I32
I32
tp3229
Rp3230
ag4
(I2400
I1856
I32
I32
tp3231
Rp3232
ag4
(I2432
I1856
I32
I32
tp3233
Rp3234
ag4
(I2720
I1856
I32
I32
tp3235
Rp3236
ag4
(I2752
I1856
I32
I32
tp3237
Rp3238
ag4
(I2784
I1856
I32
I32
tp3239
Rp3240
ag4
(I2912
I1856
I32
I32
tp3241
Rp3242
ag4
(I2944
I1856
I32
I32
tp3243
Rp3244
ag4
(I2976
I1856
I32
I32
tp3245
Rp3246
ag4
(I0
I1888
I32
I32
tp3247
Rp3248
ag4
(I32
I1888
I32
I32
tp3249
Rp3250
ag4
(I64
I1888
I32
I32
tp3251
Rp3252
ag4
(I96
I1888
I32
I32
tp3253
Rp3254
ag4
(I128
I1888
I32
I32
tp3255
Rp3256
ag4
(I160
I1888
I32
I32
tp3257
Rp3258
ag4
(I640
I1888
I32
I32
tp3259
Rp3260
ag4
(I672
I1888
I32
I32
tp3261
Rp3262
ag4
(I992
I1888
I32
I32
tp3263
Rp3264
ag4
(I1184
I1888
I32
I32
tp3265
Rp3266
ag4
(I1728
I1888
I32
I32
tp3267
Rp3268
ag4
(I1760
I1888
I32
I32
tp3269
Rp3270
ag4
(I1792
I1888
I32
I32
tp3271
Rp3272
ag4
(I1824
I1888
I32
I32
tp3273
Rp3274
ag4
(I1856
I1888
I32
I32
tp3275
Rp3276
ag4
(I1888
I1888
I32
I32
tp3277
Rp3278
ag4
(I1920
I1888
I32
I32
tp3279
Rp3280
ag4
(I1952
I1888
I32
I32
tp3281
Rp3282
ag4
(I1984
I1888
I32
I32
tp3283
Rp3284
ag4
(I2016
I1888
I32
I32
tp3285
Rp3286
ag4
(I2048
I1888
I32
I32
tp3287
Rp3288
ag4
(I2080
I1888
I32
I32
tp3289
Rp3290
ag4
(I2112
I1888
I32
I32
tp3291
Rp3292
ag4
(I2144
I1888
I32
I32
tp3293
Rp3294
ag4
(I2176
I1888
I32
I32
tp3295
Rp3296
ag4
(I2208
I1888
I32
I32
tp3297
Rp3298
ag4
(I2432
I1888
I32
I32
tp3299
Rp3300
ag4
(I2656
I1888
I32
I32
tp3301
Rp3302
ag4
(I2688
I1888
I32
I32
tp3303
Rp3304
ag4
(I2720
I1888
I32
I32
tp3305
Rp3306
ag4
(I2848
I1888
I32
I32
tp3307
Rp3308
ag4
(I2880
I1888
I32
I32
tp3309
Rp3310
ag4
(I2912
I1888
I32
I32
tp3311
Rp3312
ag4
(I0
I1920
I32
I32
tp3313
Rp3314
ag4
(I608
I1920
I32
I32
tp3315
Rp3316
ag4
(I640
I1920
I32
I32
tp3317
Rp3318
ag4
(I672
I1920
I32
I32
tp3319
Rp3320
ag4
(I832
I1920
I32
I32
tp3321
Rp3322
ag4
(I864
I1920
I32
I32
tp3323
Rp3324
ag4
(I896
I1920
I32
I32
tp3325
Rp3326
ag4
(I992
I1920
I32
I32
tp3327
Rp3328
ag4
(I1184
I1920
I32
I32
tp3329
Rp3330
ag4
(I1312
I1920
I32
I32
tp3331
Rp3332
ag4
(I1344
I1920
I32
I32
tp3333
Rp3334
ag4
(I1376
I1920
I32
I32
tp3335
Rp3336
ag4
(I1408
I1920
I32
I32
tp3337
Rp3338
ag4
(I2144
I1920
I32
I32
tp3339
Rp3340
ag4
(I2208
I1920
I32
I32
tp3341
Rp3342
ag4
(I2432
I1920
I32
I32
tp3343
Rp3344
ag4
(I2592
I1920
I32
I32
tp3345
Rp3346
ag4
(I2624
I1920
I32
I32
tp3347
Rp3348
ag4
(I2656
I1920
I32
I32
tp3349
Rp3350
ag4
(I2784
I1920
I32
I32
tp3351
Rp3352
ag4
(I2816
I1920
I32
I32
tp3353
Rp3354
ag4
(I2848
I1920
I32
I32
tp3355
Rp3356
ag4
(I0
I1952
I32
I32
tp3357
Rp3358
ag4
(I576
I1952
I32
I32
tp3359
Rp3360
ag4
(I608
I1952
I32
I32
tp3361
Rp3362
ag4
(I672
I1952
I32
I32
tp3363
Rp3364
ag4
(I832
I1952
I32
I32
tp3365
Rp3366
ag4
(I864
I1952
I32
I32
tp3367
Rp3368
ag4
(I896
I1952
I32
I32
tp3369
Rp3370
ag4
(I992
I1952
I32
I32
tp3371
Rp3372
ag4
(I1184
I1952
I32
I32
tp3373
Rp3374
ag4
(I1312
I1952
I32
I32
tp3375
Rp3376
ag4
(I1408
I1952
I32
I32
tp3377
Rp3378
ag4
(I2144
I1952
I32
I32
tp3379
Rp3380
ag4
(I2208
I1952
I32
I32
tp3381
Rp3382
ag4
(I2240
I1952
I32
I32
tp3383
Rp3384
ag4
(I2432
I1952
I32
I32
tp3385
Rp3386
ag4
(I2528
I1952
I32
I32
tp3387
Rp3388
ag4
(I2560
I1952
I32
I32
tp3389
Rp3390
ag4
(I2592
I1952
I32
I32
tp3391
Rp3392
ag4
(I2720
I1952
I32
I32
tp3393
Rp3394
ag4
(I2752
I1952
I32
I32
tp3395
Rp3396
ag4
(I2784
I1952
I32
I32
tp3397
Rp3398
ag4
(I0
I1984
I32
I32
tp3399
Rp3400
ag4
(I160
I1984
I32
I32
tp3401
Rp3402
ag4
(I192
I1984
I32
I32
tp3403
Rp3404
ag4
(I224
I1984
I32
I32
tp3405
Rp3406
ag4
(I256
I1984
I32
I32
tp3407
Rp3408
ag4
(I288
I1984
I32
I32
tp3409
Rp3410
ag4
(I320
I1984
I32
I32
tp3411
Rp3412
ag4
(I352
I1984
I32
I32
tp3413
Rp3414
ag4
(I384
I1984
I32
I32
tp3415
Rp3416
ag4
(I416
I1984
I32
I32
tp3417
Rp3418
ag4
(I448
I1984
I32
I32
tp3419
Rp3420
ag4
(I480
I1984
I32
I32
tp3421
Rp3422
ag4
(I512
I1984
I32
I32
tp3423
Rp3424
ag4
(I544
I1984
I32
I32
tp3425
Rp3426
ag4
(I576
I1984
I32
I32
tp3427
Rp3428
ag4
(I608
I1984
I32
I32
tp3429
Rp3430
ag4
(I640
I1984
I32
I32
tp3431
Rp3432
ag4
(I672
I1984
I32
I32
tp3433
Rp3434
ag4
(I832
I1984
I32
I32
tp3435
Rp3436
ag4
(I864
I1984
I32
I32
tp3437
Rp3438
ag4
(I896
I1984
I32
I32
tp3439
Rp3440
ag4
(I928
I1984
I32
I32
tp3441
Rp3442
ag4
(I960
I1984
I32
I32
tp3443
Rp3444
ag4
(I992
I1984
I32
I32
tp3445
Rp3446
ag4
(I1024
I1984
I32
I32
tp3447
Rp3448
ag4
(I1056
I1984
I32
I32
tp3449
Rp3450
ag4
(I1088
I1984
I32
I32
tp3451
Rp3452
ag4
(I1120
I1984
I32
I32
tp3453
Rp3454
ag4
(I1152
I1984
I32
I32
tp3455
Rp3456
ag4
(I1184
I1984
I32
I32
tp3457
Rp3458
ag4
(I1216
I1984
I32
I32
tp3459
Rp3460
ag4
(I1248
I1984
I32
I32
tp3461
Rp3462
ag4
(I1280
I1984
I32
I32
tp3463
Rp3464
ag4
(I1312
I1984
I32
I32
tp3465
Rp3466
ag4
(I1344
I1984
I32
I32
tp3467
Rp3468
ag4
(I1376
I1984
I32
I32
tp3469
Rp3470
ag4
(I1408
I1984
I32
I32
tp3471
Rp3472
ag4
(I1440
I1984
I32
I32
tp3473
Rp3474
ag4
(I1472
I1984
I32
I32
tp3475
Rp3476
ag4
(I1504
I1984
I32
I32
tp3477
Rp3478
ag4
(I1536
I1984
I32
I32
tp3479
Rp3480
ag4
(I1568
I1984
I32
I32
tp3481
Rp3482
ag4
(I1600
I1984
I32
I32
tp3483
Rp3484
ag4
(I1632
I1984
I32
I32
tp3485
Rp3486
ag4
(I1664
I1984
I32
I32
tp3487
Rp3488
ag4
(I1696
I1984
I32
I32
tp3489
Rp3490
ag4
(I1728
I1984
I32
I32
tp3491
Rp3492
ag4
(I1760
I1984
I32
I32
tp3493
Rp3494
ag4
(I1792
I1984
I32
I32
tp3495
Rp3496
ag4
(I1824
I1984
I32
I32
tp3497
Rp3498
ag4
(I1856
I1984
I32
I32
tp3499
Rp3500
ag4
(I1888
I1984
I32
I32
tp3501
Rp3502
ag4
(I1920
I1984
I32
I32
tp3503
Rp3504
ag4
(I1952
I1984
I32
I32
tp3505
Rp3506
ag4
(I1984
I1984
I32
I32
tp3507
Rp3508
ag4
(I2016
I1984
I32
I32
tp3509
Rp3510
ag4
(I2048
I1984
I32
I32
tp3511
Rp3512
ag4
(I2080
I1984
I32
I32
tp3513
Rp3514
ag4
(I2112
I1984
I32
I32
tp3515
Rp3516
ag4
(I2144
I1984
I32
I32
tp3517
Rp3518
ag4
(I2176
I1984
I32
I32
tp3519
Rp3520
ag4
(I2208
I1984
I32
I32
tp3521
Rp3522
ag4
(I2240
I1984
I32
I32
tp3523
Rp3524
ag4
(I2272
I1984
I32
I32
tp3525
Rp3526
ag4
(I2432
I1984
I32
I32
tp3527
Rp3528
ag4
(I2464
I1984
I32
I32
tp3529
Rp3530
ag4
(I2496
I1984
I32
I32
tp3531
Rp3532
ag4
(I2528
I1984
I32
I32
tp3533
Rp3534
ag4
(I2656
I1984
I32
I32
tp3535
Rp3536
ag4
(I2688
I1984
I32
I32
tp3537
Rp3538
ag4
(I2720
I1984
I32
I32
tp3539
Rp3540
ag4
(I0
I2016
I32
I32
tp3541
Rp3542
ag4
(I160
I2016
I32
I32
tp3543
Rp3544
ag4
(I512
I2016
I32
I32
tp3545
Rp3546
ag4
(I992
I2016
I32
I32
tp3547
Rp3548
ag4
(I1792
I2016
I32
I32
tp3549
Rp3550
ag4
(I1824
I2016
I32
I32
tp3551
Rp3552
ag4
(I1856
I2016
I32
I32
tp3553
Rp3554
ag4
(I2016
I2016
I32
I32
tp3555
Rp3556
ag4
(I2432
I2016
I32
I32
tp3557
Rp3558
ag4
(I2464
I2016
I32
I32
tp3559
Rp3560
ag4
(I2592
I2016
I32
I32
tp3561
Rp3562
ag4
(I2624
I2016
I32
I32
tp3563
Rp3564
ag4
(I2656
I2016
I32
I32
tp3565
Rp3566
ag4
(I0
I2048
I32
I32
tp3567
Rp3568
ag4
(I128
I2048
I32
I32
tp3569
Rp3570
ag4
(I160
I2048
I32
I32
tp3571
Rp3572
ag4
(I512
I2048
I32
I32
tp3573
Rp3574
ag4
(I704
I2048
I32
I32
tp3575
Rp3576
ag4
(I736
I2048
I32
I32
tp3577
Rp3578
ag4
(I768
I2048
I32
I32
tp3579
Rp3580
ag4
(I800
I2048
I32
I32
tp3581
Rp3582
ag4
(I992
I2048
I32
I32
tp3583
Rp3584
ag4
(I1856
I2048
I32
I32
tp3585
Rp3586
ag4
(I1888
I2048
I32
I32
tp3587
Rp3588
ag4
(I1920
I2048
I32
I32
tp3589
Rp3590
ag4
(I2016
I2048
I32
I32
tp3591
Rp3592
ag4
(I2432
I2048
I32
I32
tp3593
Rp3594
ag4
(I2528
I2048
I32
I32
tp3595
Rp3596
ag4
(I2560
I2048
I32
I32
tp3597
Rp3598
ag4
(I2592
I2048
I32
I32
tp3599
Rp3600
ag4
(I2624
I2048
I32
I32
tp3601
Rp3602
ag4
(I2656
I2048
I32
I32
tp3603
Rp3604
ag4
(I2688
I2048
I32
I32
tp3605
Rp3606
ag4
(I2720
I2048
I32
I32
tp3607
Rp3608
ag4
(I2752
I2048
I32
I32
tp3609
Rp3610
ag4
(I2784
I2048
I32
I32
tp3611
Rp3612
ag4
(I2816
I2048
I32
I32
tp3613
Rp3614
ag4
(I2848
I2048
I32
I32
tp3615
Rp3616
ag4
(I2880
I2048
I32
I32
tp3617
Rp3618
ag4
(I2912
I2048
I32
I32
tp3619
Rp3620
ag4
(I2944
I2048
I32
I32
tp3621
Rp3622
ag4
(I2976
I2048
I32
I32
tp3623
Rp3624
ag4
(I3008
I2048
I32
I32
tp3625
Rp3626
ag4
(I3040
I2048
I32
I32
tp3627
Rp3628
ag4
(I3072
I2048
I32
I32
tp3629
Rp3630
ag4
(I3104
I2048
I32
I32
tp3631
Rp3632
ag4
(I3136
I2048
I32
I32
tp3633
Rp3634
ag4
(I3168
I2048
I32
I32
tp3635
Rp3636
ag4
(I0
I2080
I32
I32
tp3637
Rp3638
ag4
(I96
I2080
I32
I32
tp3639
Rp3640
ag4
(I128
I2080
I32
I32
tp3641
Rp3642
ag4
(I160
I2080
I32
I32
tp3643
Rp3644
ag4
(I512
I2080
I32
I32
tp3645
Rp3646
ag4
(I992
I2080
I32
I32
tp3647
Rp3648
ag4
(I1472
I2080
I32
I32
tp3649
Rp3650
ag4
(I1504
I2080
I32
I32
tp3651
Rp3652
ag4
(I1536
I2080
I32
I32
tp3653
Rp3654
ag4
(I1568
I2080
I32
I32
tp3655
Rp3656
ag4
(I1600
I2080
I32
I32
tp3657
Rp3658
ag4
(I1632
I2080
I32
I32
tp3659
Rp3660
ag4
(I1664
I2080
I32
I32
tp3661
Rp3662
ag4
(I1696
I2080
I32
I32
tp3663
Rp3664
ag4
(I1920
I2080
I32
I32
tp3665
Rp3666
ag4
(I1952
I2080
I32
I32
tp3667
Rp3668
ag4
(I1984
I2080
I32
I32
tp3669
Rp3670
ag4
(I2016
I2080
I32
I32
tp3671
Rp3672
ag4
(I2144
I2080
I32
I32
tp3673
Rp3674
ag4
(I2176
I2080
I32
I32
tp3675
Rp3676
ag4
(I2208
I2080
I32
I32
tp3677
Rp3678
ag4
(I2240
I2080
I32
I32
tp3679
Rp3680
ag4
(I2272
I2080
I32
I32
tp3681
Rp3682
ag4
(I2304
I2080
I32
I32
tp3683
Rp3684
ag4
(I2336
I2080
I32
I32
tp3685
Rp3686
ag4
(I2368
I2080
I32
I32
tp3687
Rp3688
ag4
(I2400
I2080
I32
I32
tp3689
Rp3690
ag4
(I2432
I2080
I32
I32
tp3691
Rp3692
ag4
(I3168
I2080
I32
I32
tp3693
Rp3694
ag4
(I0
I2112
I32
I32
tp3695
Rp3696
ag4
(I160
I2112
I32
I32
tp3697
Rp3698
ag4
(I512
I2112
I32
I32
tp3699
Rp3700
ag4
(I544
I2112
I32
I32
tp3701
Rp3702
ag4
(I960
I2112
I32
I32
tp3703
Rp3704
ag4
(I992
I2112
I32
I32
tp3705
Rp3706
ag4
(I1312
I2112
I32
I32
tp3707
Rp3708
ag4
(I1344
I2112
I32
I32
tp3709
Rp3710
ag4
(I1376
I2112
I32
I32
tp3711
Rp3712
ag4
(I1504
I2112
I32
I32
tp3713
Rp3714
ag4
(I1696
I2112
I32
I32
tp3715
Rp3716
ag4
(I1728
I2112
I32
I32
tp3717
Rp3718
ag4
(I1760
I2112
I32
I32
tp3719
Rp3720
ag4
(I1984
I2112
I32
I32
tp3721
Rp3722
ag4
(I2016
I2112
I32
I32
tp3723
Rp3724
ag4
(I2144
I2112
I32
I32
tp3725
Rp3726
ag4
(I2432
I2112
I32
I32
tp3727
Rp3728
ag4
(I3168
I2112
I32
I32
tp3729
Rp3730
ag4
(I0
I2144
I32
I32
tp3731
Rp3732
ag4
(I160
I2144
I32
I32
tp3733
Rp3734
ag4
(I512
I2144
I32
I32
tp3735
Rp3736
ag4
(I544
I2144
I32
I32
tp3737
Rp3738
ag4
(I576
I2144
I32
I32
tp3739
Rp3740
ag4
(I608
I2144
I32
I32
tp3741
Rp3742
ag4
(I640
I2144
I32
I32
tp3743
Rp3744
ag4
(I672
I2144
I32
I32
tp3745
Rp3746
ag4
(I832
I2144
I32
I32
tp3747
Rp3748
ag4
(I864
I2144
I32
I32
tp3749
Rp3750
ag4
(I896
I2144
I32
I32
tp3751
Rp3752
ag4
(I928
I2144
I32
I32
tp3753
Rp3754
ag4
(I960
I2144
I32
I32
tp3755
Rp3756
ag4
(I992
I2144
I32
I32
tp3757
Rp3758
ag4
(I1504
I2144
I32
I32
tp3759
Rp3760
ag4
(I1760
I2144
I32
I32
tp3761
Rp3762
ag4
(I1792
I2144
I32
I32
tp3763
Rp3764
ag4
(I1824
I2144
I32
I32
tp3765
Rp3766
ag4
(I2112
I2144
I32
I32
tp3767
Rp3768
ag4
(I2144
I2144
I32
I32
tp3769
Rp3770
ag4
(I2432
I2144
I32
I32
tp3771
Rp3772
ag4
(I3168
I2144
I32
I32
tp3773
Rp3774
ag4
(I0
I2176
I32
I32
tp3775
Rp3776
ag4
(I64
I2176
I32
I32
tp3777
Rp3778
ag4
(I96
I2176
I32
I32
tp3779
Rp3780
ag4
(I160
I2176
I32
I32
tp3781
Rp3782
ag4
(I192
I2176
I32
I32
tp3783
Rp3784
ag4
(I224
I2176
I32
I32
tp3785
Rp3786
ag4
(I256
I2176
I32
I32
tp3787
Rp3788
ag4
(I288
I2176
I32
I32
tp3789
Rp3790
ag4
(I320
I2176
I32
I32
tp3791
Rp3792
ag4
(I352
I2176
I32
I32
tp3793
Rp3794
ag4
(I384
I2176
I32
I32
tp3795
Rp3796
ag4
(I416
I2176
I32
I32
tp3797
Rp3798
ag4
(I448
I2176
I32
I32
tp3799
Rp3800
ag4
(I480
I2176
I32
I32
tp3801
Rp3802
ag4
(I512
I2176
I32
I32
tp3803
Rp3804
ag4
(I544
I2176
I32
I32
tp3805
Rp3806
ag4
(I576
I2176
I32
I32
tp3807
Rp3808
ag4
(I608
I2176
I32
I32
tp3809
Rp3810
ag4
(I640
I2176
I32
I32
tp3811
Rp3812
ag4
(I672
I2176
I32
I32
tp3813
Rp3814
ag4
(I704
I2176
I32
I32
tp3815
Rp3816
ag4
(I800
I2176
I32
I32
tp3817
Rp3818
ag4
(I832
I2176
I32
I32
tp3819
Rp3820
ag4
(I864
I2176
I32
I32
tp3821
Rp3822
ag4
(I896
I2176
I32
I32
tp3823
Rp3824
ag4
(I928
I2176
I32
I32
tp3825
Rp3826
ag4
(I960
I2176
I32
I32
tp3827
Rp3828
ag4
(I992
I2176
I32
I32
tp3829
Rp3830
ag4
(I1152
I2176
I32
I32
tp3831
Rp3832
ag4
(I1184
I2176
I32
I32
tp3833
Rp3834
ag4
(I1504
I2176
I32
I32
tp3835
Rp3836
ag4
(I1824
I2176
I32
I32
tp3837
Rp3838
ag4
(I1856
I2176
I32
I32
tp3839
Rp3840
ag4
(I1888
I2176
I32
I32
tp3841
Rp3842
ag4
(I2080
I2176
I32
I32
tp3843
Rp3844
ag4
(I2112
I2176
I32
I32
tp3845
Rp3846
ag4
(I2432
I2176
I32
I32
tp3847
Rp3848
ag4
(I2464
I2176
I32
I32
tp3849
Rp3850
ag4
(I2496
I2176
I32
I32
tp3851
Rp3852
ag4
(I2528
I2176
I32
I32
tp3853
Rp3854
ag4
(I2560
I2176
I32
I32
tp3855
Rp3856
ag4
(I2592
I2176
I32
I32
tp3857
Rp3858
ag4
(I2624
I2176
I32
I32
tp3859
Rp3860
ag4
(I2656
I2176
I32
I32
tp3861
Rp3862
ag4
(I2688
I2176
I32
I32
tp3863
Rp3864
ag4
(I3168
I2176
I32
I32
tp3865
Rp3866
ag4
(I0
I2208
I32
I32
tp3867
Rp3868
ag4
(I160
I2208
I32
I32
tp3869
Rp3870
ag4
(I320
I2208
I32
I32
tp3871
Rp3872
ag4
(I992
I2208
I32
I32
tp3873
Rp3874
ag4
(I1504
I2208
I32
I32
tp3875
Rp3876
ag4
(I1888
I2208
I32
I32
tp3877
Rp3878
ag4
(I1920
I2208
I32
I32
tp3879
Rp3880
ag4
(I1952
I2208
I32
I32
tp3881
Rp3882
ag4
(I2048
I2208
I32
I32
tp3883
Rp3884
ag4
(I2080
I2208
I32
I32
tp3885
Rp3886
ag4
(I2432
I2208
I32
I32
tp3887
Rp3888
ag4
(I2464
I2208
I32
I32
tp3889
Rp3890
ag4
(I2496
I2208
I32
I32
tp3891
Rp3892
ag4
(I2528
I2208
I32
I32
tp3893
Rp3894
ag4
(I2560
I2208
I32
I32
tp3895
Rp3896
ag4
(I2592
I2208
I32
I32
tp3897
Rp3898
ag4
(I2624
I2208
I32
I32
tp3899
Rp3900
ag4
(I2656
I2208
I32
I32
tp3901
Rp3902
ag4
(I2688
I2208
I32
I32
tp3903
Rp3904
ag4
(I2720
I2208
I32
I32
tp3905
Rp3906
ag4
(I2752
I2208
I32
I32
tp3907
Rp3908
ag4
(I2784
I2208
I32
I32
tp3909
Rp3910
ag4
(I2816
I2208
I32
I32
tp3911
Rp3912
ag4
(I2848
I2208
I32
I32
tp3913
Rp3914
ag4
(I2880
I2208
I32
I32
tp3915
Rp3916
ag4
(I2912
I2208
I32
I32
tp3917
Rp3918
ag4
(I2944
I2208
I32
I32
tp3919
Rp3920
ag4
(I2976
I2208
I32
I32
tp3921
Rp3922
ag4
(I3008
I2208
I32
I32
tp3923
Rp3924
ag4
(I3168
I2208
I32
I32
tp3925
Rp3926
ag4
(I0
I2240
I32
I32
tp3927
Rp3928
ag4
(I160
I2240
I32
I32
tp3929
Rp3930
ag4
(I320
I2240
I32
I32
tp3931
Rp3932
ag4
(I992
I2240
I32
I32
tp3933
Rp3934
ag4
(I1280
I2240
I32
I32
tp3935
Rp3936
ag4
(I1312
I2240
I32
I32
tp3937
Rp3938
ag4
(I1504
I2240
I32
I32
tp3939
Rp3940
ag4
(I1536
I2240
I32
I32
tp3941
Rp3942
ag4
(I1568
I2240
I32
I32
tp3943
Rp3944
ag4
(I1600
I2240
I32
I32
tp3945
Rp3946
ag4
(I1632
I2240
I32
I32
tp3947
Rp3948
ag4
(I1664
I2240
I32
I32
tp3949
Rp3950
ag4
(I1696
I2240
I32
I32
tp3951
Rp3952
ag4
(I1728
I2240
I32
I32
tp3953
Rp3954
ag4
(I1760
I2240
I32
I32
tp3955
Rp3956
ag4
(I1792
I2240
I32
I32
tp3957
Rp3958
ag4
(I1824
I2240
I32
I32
tp3959
Rp3960
ag4
(I1856
I2240
I32
I32
tp3961
Rp3962
ag4
(I1888
I2240
I32
I32
tp3963
Rp3964
ag4
(I1920
I2240
I32
I32
tp3965
Rp3966
ag4
(I1952
I2240
I32
I32
tp3967
Rp3968
ag4
(I1984
I2240
I32
I32
tp3969
Rp3970
ag4
(I2016
I2240
I32
I32
tp3971
Rp3972
ag4
(I2048
I2240
I32
I32
tp3973
Rp3974
ag4
(I2080
I2240
I32
I32
tp3975
Rp3976
ag4
(I2112
I2240
I32
I32
tp3977
Rp3978
ag4
(I2144
I2240
I32
I32
tp3979
Rp3980
ag4
(I2176
I2240
I32
I32
tp3981
Rp3982
ag4
(I2208
I2240
I32
I32
tp3983
Rp3984
ag4
(I2240
I2240
I32
I32
tp3985
Rp3986
ag4
(I2272
I2240
I32
I32
tp3987
Rp3988
ag4
(I2304
I2240
I32
I32
tp3989
Rp3990
ag4
(I2336
I2240
I32
I32
tp3991
Rp3992
ag4
(I2368
I2240
I32
I32
tp3993
Rp3994
ag4
(I2400
I2240
I32
I32
tp3995
Rp3996
ag4
(I2432
I2240
I32
I32
tp3997
Rp3998
ag4
(I3168
I2240
I32
I32
tp3999
Rp4000
ag4
(I0
I2272
I32
I32
tp4001
Rp4002
ag4
(I32
I2272
I32
I32
tp4003
Rp4004
ag4
(I160
I2272
I32
I32
tp4005
Rp4006
ag4
(I320
I2272
I32
I32
tp4007
Rp4008
ag4
(I512
I2272
I32
I32
tp4009
Rp4010
ag4
(I544
I2272
I32
I32
tp4011
Rp4012
ag4
(I576
I2272
I32
I32
tp4013
Rp4014
ag4
(I608
I2272
I32
I32
tp4015
Rp4016
ag4
(I640
I2272
I32
I32
tp4017
Rp4018
ag4
(I672
I2272
I32
I32
tp4019
Rp4020
ag4
(I704
I2272
I32
I32
tp4021
Rp4022
ag4
(I736
I2272
I32
I32
tp4023
Rp4024
ag4
(I768
I2272
I32
I32
tp4025
Rp4026
ag4
(I800
I2272
I32
I32
tp4027
Rp4028
ag4
(I832
I2272
I32
I32
tp4029
Rp4030
ag4
(I864
I2272
I32
I32
tp4031
Rp4032
ag4
(I896
I2272
I32
I32
tp4033
Rp4034
ag4
(I928
I2272
I32
I32
tp4035
Rp4036
ag4
(I960
I2272
I32
I32
tp4037
Rp4038
ag4
(I992
I2272
I32
I32
tp4039
Rp4040
ag4
(I1504
I2272
I32
I32
tp4041
Rp4042
ag4
(I3168
I2272
I32
I32
tp4043
Rp4044
ag4
(I0
I2304
I32
I32
tp4045
Rp4046
ag4
(I160
I2304
I32
I32
tp4047
Rp4048
ag4
(I320
I2304
I32
I32
tp4049
Rp4050
ag4
(I736
I2304
I32
I32
tp4051
Rp4052
ag4
(I768
I2304
I32
I32
tp4053
Rp4054
ag4
(I800
I2304
I32
I32
tp4055
Rp4056
ag4
(I1408
I2304
I32
I32
tp4057
Rp4058
ag4
(I1440
I2304
I32
I32
tp4059
Rp4060
ag4
(I1472
I2304
I32
I32
tp4061
Rp4062
ag4
(I1504
I2304
I32
I32
tp4063
Rp4064
ag4
(I2592
I2304
I32
I32
tp4065
Rp4066
ag4
(I3168
I2304
I32
I32
tp4067
Rp4068
ag4
(I0
I2336
I32
I32
tp4069
Rp4070
ag4
(I160
I2336
I32
I32
tp4071
Rp4072
ag4
(I320
I2336
I32
I32
tp4073
Rp4074
ag4
(I576
I2336
I32
I32
tp4075
Rp4076
ag4
(I608
I2336
I32
I32
tp4077
Rp4078
ag4
(I640
I2336
I32
I32
tp4079
Rp4080
ag4
(I768
I2336
I32
I32
tp4081
Rp4082
ag4
(I800
I2336
I32
I32
tp4083
Rp4084
ag4
(I832
I2336
I32
I32
tp4085
Rp4086
ag4
(I960
I2336
I32
I32
tp4087
Rp4088
ag4
(I992
I2336
I32
I32
tp4089
Rp4090
ag4
(I1024
I2336
I32
I32
tp4091
Rp4092
ag4
(I1184
I2336
I32
I32
tp4093
Rp4094
ag4
(I1312
I2336
I32
I32
tp4095
Rp4096
ag4
(I1344
I2336
I32
I32
tp4097
Rp4098
ag4
(I1376
I2336
I32
I32
tp4099
Rp4100
ag4
(I1408
I2336
I32
I32
tp4101
Rp4102
ag4
(I1504
I2336
I32
I32
tp4103
Rp4104
ag4
(I2592
I2336
I32
I32
tp4105
Rp4106
ag4
(I3072
I2336
I32
I32
tp4107
Rp4108
ag4
(I3104
I2336
I32
I32
tp4109
Rp4110
ag4
(I3136
I2336
I32
I32
tp4111
Rp4112
ag4
(I3168
I2336
I32
I32
tp4113
Rp4114
ag4
(I0
I2368
I32
I32
tp4115
Rp4116
ag4
(I128
I2368
I32
I32
tp4117
Rp4118
ag4
(I160
I2368
I32
I32
tp4119
Rp4120
ag4
(I320
I2368
I32
I32
tp4121
Rp4122
ag4
(I544
I2368
I32
I32
tp4123
Rp4124
ag4
(I576
I2368
I32
I32
tp4125
Rp4126
ag4
(I608
I2368
I32
I32
tp4127
Rp4128
ag4
(I928
I2368
I32
I32
tp4129
Rp4130
ag4
(I960
I2368
I32
I32
tp4131
Rp4132
ag4
(I1024
I2368
I32
I32
tp4133
Rp4134
ag4
(I1184
I2368
I32
I32
tp4135
Rp4136
ag4
(I1280
I2368
I32
I32
tp4137
Rp4138
ag4
(I1312
I2368
I32
I32
tp4139
Rp4140
ag4
(I1504
I2368
I32
I32
tp4141
Rp4142
ag4
(I1664
I2368
I32
I32
tp4143
Rp4144
ag4
(I1696
I2368
I32
I32
tp4145
Rp4146
ag4
(I1728
I2368
I32
I32
tp4147
Rp4148
ag4
(I1760
I2368
I32
I32
tp4149
Rp4150
ag4
(I1792
I2368
I32
I32
tp4151
Rp4152
ag4
(I1824
I2368
I32
I32
tp4153
Rp4154
ag4
(I1856
I2368
I32
I32
tp4155
Rp4156
ag4
(I1888
I2368
I32
I32
tp4157
Rp4158
ag4
(I1920
I2368
I32
I32
tp4159
Rp4160
ag4
(I1952
I2368
I32
I32
tp4161
Rp4162
ag4
(I1984
I2368
I32
I32
tp4163
Rp4164
ag4
(I2016
I2368
I32
I32
tp4165
Rp4166
ag4
(I2048
I2368
I32
I32
tp4167
Rp4168
ag4
(I2080
I2368
I32
I32
tp4169
Rp4170
ag4
(I2112
I2368
I32
I32
tp4171
Rp4172
ag4
(I2144
I2368
I32
I32
tp4173
Rp4174
ag4
(I2176
I2368
I32
I32
tp4175
Rp4176
ag4
(I2208
I2368
I32
I32
tp4177
Rp4178
ag4
(I2240
I2368
I32
I32
tp4179
Rp4180
ag4
(I2272
I2368
I32
I32
tp4181
Rp4182
ag4
(I2304
I2368
I32
I32
tp4183
Rp4184
ag4
(I2336
I2368
I32
I32
tp4185
Rp4186
ag4
(I2368
I2368
I32
I32
tp4187
Rp4188
ag4
(I2400
I2368
I32
I32
tp4189
Rp4190
ag4
(I2432
I2368
I32
I32
tp4191
Rp4192
ag4
(I2464
I2368
I32
I32
tp4193
Rp4194
ag4
(I2496
I2368
I32
I32
tp4195
Rp4196
ag4
(I2528
I2368
I32
I32
tp4197
Rp4198
ag4
(I2560
I2368
I32
I32
tp4199
Rp4200
ag4
(I2592
I2368
I32
I32
tp4201
Rp4202
ag4
(I2624
I2368
I32
I32
tp4203
Rp4204
ag4
(I2656
I2368
I32
I32
tp4205
Rp4206
ag4
(I2688
I2368
I32
I32
tp4207
Rp4208
ag4
(I2720
I2368
I32
I32
tp4209
Rp4210
ag4
(I2752
I2368
I32
I32
tp4211
Rp4212
ag4
(I2784
I2368
I32
I32
tp4213
Rp4214
ag4
(I2816
I2368
I32
I32
tp4215
Rp4216
ag4
(I2848
I2368
I32
I32
tp4217
Rp4218
ag4
(I2880
I2368
I32
I32
tp4219
Rp4220
ag4
(I2912
I2368
I32
I32
tp4221
Rp4222
ag4
(I2944
I2368
I32
I32
tp4223
Rp4224
ag4
(I2976
I2368
I32
I32
tp4225
Rp4226
ag4
(I3008
I2368
I32
I32
tp4227
Rp4228
ag4
(I3040
I2368
I32
I32
tp4229
Rp4230
ag4
(I3072
I2368
I32
I32
tp4231
Rp4232
ag4
(I3104
I2368
I32
I32
tp4233
Rp4234
ag4
(I3136
I2368
I32
I32
tp4235
Rp4236
ag4
(I3168
I2368
I32
I32
tp4237
Rp4238
ag4
(I0
I2400
I32
I32
tp4239
Rp4240
ag4
(I160
I2400
I32
I32
tp4241
Rp4242
ag4
(I192
I2400
I32
I32
tp4243
Rp4244
ag4
(I224
I2400
I32
I32
tp4245
Rp4246
ag4
(I256
I2400
I32
I32
tp4247
Rp4248
ag4
(I288
I2400
I32
I32
tp4249
Rp4250
ag4
(I320
I2400
I32
I32
tp4251
Rp4252
ag4
(I352
I2400
I32
I32
tp4253
Rp4254
ag4
(I384
I2400
I32
I32
tp4255
Rp4256
ag4
(I416
I2400
I32
I32
tp4257
Rp4258
ag4
(I448
I2400
I32
I32
tp4259
Rp4260
ag4
(I480
I2400
I32
I32
tp4261
Rp4262
ag4
(I512
I2400
I32
I32
tp4263
Rp4264
ag4
(I544
I2400
I32
I32
tp4265
Rp4266
ag4
(I576
I2400
I32
I32
tp4267
Rp4268
ag4
(I608
I2400
I32
I32
tp4269
Rp4270
ag4
(I640
I2400
I32
I32
tp4271
Rp4272
ag4
(I672
I2400
I32
I32
tp4273
Rp4274
ag4
(I704
I2400
I32
I32
tp4275
Rp4276
ag4
(I736
I2400
I32
I32
tp4277
Rp4278
ag4
(I768
I2400
I32
I32
tp4279
Rp4280
ag4
(I800
I2400
I32
I32
tp4281
Rp4282
ag4
(I832
I2400
I32
I32
tp4283
Rp4284
ag4
(I864
I2400
I32
I32
tp4285
Rp4286
ag4
(I896
I2400
I32
I32
tp4287
Rp4288
ag4
(I928
I2400
I32
I32
tp4289
Rp4290
ag4
(I960
I2400
I32
I32
tp4291
Rp4292
ag4
(I992
I2400
I32
I32
tp4293
Rp4294
ag4
(I1024
I2400
I32
I32
tp4295
Rp4296
ag4
(I1056
I2400
I32
I32
tp4297
Rp4298
ag4
(I1088
I2400
I32
I32
tp4299
Rp4300
ag4
(I1120
I2400
I32
I32
tp4301
Rp4302
ag4
(I1152
I2400
I32
I32
tp4303
Rp4304
ag4
(I1184
I2400
I32
I32
tp4305
Rp4306
ag4
(I1216
I2400
I32
I32
tp4307
Rp4308
ag4
(I1248
I2400
I32
I32
tp4309
Rp4310
ag4
(I1280
I2400
I32
I32
tp4311
Rp4312
ag4
(I1312
I2400
I32
I32
tp4313
Rp4314
ag4
(I1344
I2400
I32
I32
tp4315
Rp4316
ag4
(I1376
I2400
I32
I32
tp4317
Rp4318
ag4
(I1408
I2400
I32
I32
tp4319
Rp4320
ag4
(I1440
I2400
I32
I32
tp4321
Rp4322
ag4
(I1472
I2400
I32
I32
tp4323
Rp4324
ag4
(I1504
I2400
I32
I32
tp4325
Rp4326
ag4
(I3168
I2400
I32
I32
tp4327
Rp4328
ag4
(I0
I2432
I32
I32
tp4329
Rp4330
ag4
(I416
I2432
I32
I32
tp4331
Rp4332
ag4
(I448
I2432
I32
I32
tp4333
Rp4334
ag4
(I480
I2432
I32
I32
tp4335
Rp4336
ag4
(I512
I2432
I32
I32
tp4337
Rp4338
ag4
(I1504
I2432
I32
I32
tp4339
Rp4340
ag4
(I2144
I2432
I32
I32
tp4341
Rp4342
ag4
(I2176
I2432
I32
I32
tp4343
Rp4344
ag4
(I2208
I2432
I32
I32
tp4345
Rp4346
ag4
(I2240
I2432
I32
I32
tp4347
Rp4348
ag4
(I3168
I2432
I32
I32
tp4349
Rp4350
ag4
(I0
I2464
I32
I32
tp4351
Rp4352
ag4
(I32
I2464
I32
I32
tp4353
Rp4354
ag4
(I64
I2464
I32
I32
tp4355
Rp4356
ag4
(I448
I2464
I32
I32
tp4357
Rp4358
ag4
(I480
I2464
I32
I32
tp4359
Rp4360
ag4
(I896
I2464
I32
I32
tp4361
Rp4362
ag4
(I928
I2464
I32
I32
tp4363
Rp4364
ag4
(I1504
I2464
I32
I32
tp4365
Rp4366
ag4
(I2144
I2464
I32
I32
tp4367
Rp4368
ag4
(I2176
I2464
I32
I32
tp4369
Rp4370
ag4
(I2208
I2464
I32
I32
tp4371
Rp4372
ag4
(I2240
I2464
I32
I32
tp4373
Rp4374
ag4
(I3168
I2464
I32
I32
tp4375
Rp4376
ag4
(I64
I2496
I32
I32
tp4377
Rp4378
ag4
(I96
I2496
I32
I32
tp4379
Rp4380
ag4
(I128
I2496
I32
I32
tp4381
Rp4382
ag4
(I864
I2496
I32
I32
tp4383
Rp4384
ag4
(I896
I2496
I32
I32
tp4385
Rp4386
ag4
(I928
I2496
I32
I32
tp4387
Rp4388
ag4
(I960
I2496
I32
I32
tp4389
Rp4390
ag4
(I1504
I2496
I32
I32
tp4391
Rp4392
ag4
(I1536
I2496
I32
I32
tp4393
Rp4394
ag4
(I1568
I2496
I32
I32
tp4395
Rp4396
ag4
(I1600
I2496
I32
I32
tp4397
Rp4398
ag4
(I3168
I2496
I32
I32
tp4399
Rp4400
ag4
(I0
I2528
I32
I32
tp4401
Rp4402
ag4
(I32
I2528
I32
I32
tp4403
Rp4404
ag4
(I64
I2528
I32
I32
tp4405
Rp4406
ag4
(I96
I2528
I32
I32
tp4407
Rp4408
ag4
(I128
I2528
I32
I32
tp4409
Rp4410
ag4
(I160
I2528
I32
I32
tp4411
Rp4412
ag4
(I192
I2528
I32
I32
tp4413
Rp4414
ag4
(I224
I2528
I32
I32
tp4415
Rp4416
ag4
(I256
I2528
I32
I32
tp4417
Rp4418
ag4
(I288
I2528
I32
I32
tp4419
Rp4420
ag4
(I320
I2528
I32
I32
tp4421
Rp4422
ag4
(I352
I2528
I32
I32
tp4423
Rp4424
ag4
(I384
I2528
I32
I32
tp4425
Rp4426
ag4
(I416
I2528
I32
I32
tp4427
Rp4428
ag4
(I448
I2528
I32
I32
tp4429
Rp4430
ag4
(I480
I2528
I32
I32
tp4431
Rp4432
ag4
(I512
I2528
I32
I32
tp4433
Rp4434
ag4
(I544
I2528
I32
I32
tp4435
Rp4436
ag4
(I576
I2528
I32
I32
tp4437
Rp4438
ag4
(I608
I2528
I32
I32
tp4439
Rp4440
ag4
(I640
I2528
I32
I32
tp4441
Rp4442
ag4
(I672
I2528
I32
I32
tp4443
Rp4444
ag4
(I704
I2528
I32
I32
tp4445
Rp4446
ag4
(I736
I2528
I32
I32
tp4447
Rp4448
ag4
(I768
I2528
I32
I32
tp4449
Rp4450
ag4
(I800
I2528
I32
I32
tp4451
Rp4452
ag4
(I832
I2528
I32
I32
tp4453
Rp4454
ag4
(I864
I2528
I32
I32
tp4455
Rp4456
ag4
(I896
I2528
I32
I32
tp4457
Rp4458
ag4
(I928
I2528
I32
I32
tp4459
Rp4460
ag4
(I960
I2528
I32
I32
tp4461
Rp4462
ag4
(I992
I2528
I32
I32
tp4463
Rp4464
ag4
(I1024
I2528
I32
I32
tp4465
Rp4466
ag4
(I1056
I2528
I32
I32
tp4467
Rp4468
ag4
(I1088
I2528
I32
I32
tp4469
Rp4470
ag4
(I1120
I2528
I32
I32
tp4471
Rp4472
ag4
(I1504
I2528
I32
I32
tp4473
Rp4474
ag4
(I1536
I2528
I32
I32
tp4475
Rp4476
ag4
(I1568
I2528
I32
I32
tp4477
Rp4478
ag4
(I1600
I2528
I32
I32
tp4479
Rp4480
ag4
(I1728
I2528
I32
I32
tp4481
Rp4482
ag4
(I1760
I2528
I32
I32
tp4483
Rp4484
ag4
(I1792
I2528
I32
I32
tp4485
Rp4486
ag4
(I1824
I2528
I32
I32
tp4487
Rp4488
ag4
(I3168
I2528
I32
I32
tp4489
Rp4490
ag4
(I0
I2560
I32
I32
tp4491
Rp4492
ag4
(I928
I2560
I32
I32
tp4493
Rp4494
ag4
(I1120
I2560
I32
I32
tp4495
Rp4496
ag4
(I1152
I2560
I32
I32
tp4497
Rp4498
ag4
(I1184
I2560
I32
I32
tp4499
Rp4500
ag4
(I1504
I2560
I32
I32
tp4501
Rp4502
ag4
(I1728
I2560
I32
I32
tp4503
Rp4504
ag4
(I1760
I2560
I32
I32
tp4505
Rp4506
ag4
(I1792
I2560
I32
I32
tp4507
Rp4508
ag4
(I1824
I2560
I32
I32
tp4509
Rp4510
ag4
(I3168
I2560
I32
I32
tp4511
Rp4512
ag4
(I0
I2592
I32
I32
tp4513
Rp4514
ag4
(I928
I2592
I32
I32
tp4515
Rp4516
ag4
(I1184
I2592
I32
I32
tp4517
Rp4518
ag4
(I1216
I2592
I32
I32
tp4519
Rp4520
ag4
(I1248
I2592
I32
I32
tp4521
Rp4522
ag4
(I1504
I2592
I32
I32
tp4523
Rp4524
ag4
(I2560
I2592
I32
I32
tp4525
Rp4526
ag4
(I2592
I2592
I32
I32
tp4527
Rp4528
ag4
(I2624
I2592
I32
I32
tp4529
Rp4530
ag4
(I2656
I2592
I32
I32
tp4531
Rp4532
ag4
(I3168
I2592
I32
I32
tp4533
Rp4534
ag4
(I0
I2624
I32
I32
tp4535
Rp4536
ag4
(I928
I2624
I32
I32
tp4537
Rp4538
ag4
(I1248
I2624
I32
I32
tp4539
Rp4540
ag4
(I1280
I2624
I32
I32
tp4541
Rp4542
ag4
(I1312
I2624
I32
I32
tp4543
Rp4544
ag4
(I1504
I2624
I32
I32
tp4545
Rp4546
ag4
(I1920
I2624
I32
I32
tp4547
Rp4548
ag4
(I1952
I2624
I32
I32
tp4549
Rp4550
ag4
(I1984
I2624
I32
I32
tp4551
Rp4552
ag4
(I2016
I2624
I32
I32
tp4553
Rp4554
ag4
(I2560
I2624
I32
I32
tp4555
Rp4556
ag4
(I2592
I2624
I32
I32
tp4557
Rp4558
ag4
(I2624
I2624
I32
I32
tp4559
Rp4560
ag4
(I2656
I2624
I32
I32
tp4561
Rp4562
ag4
(I3168
I2624
I32
I32
tp4563
Rp4564
ag4
(I0
I2656
I32
I32
tp4565
Rp4566
ag4
(I224
I2656
I32
I32
tp4567
Rp4568
ag4
(I256
I2656
I32
I32
tp4569
Rp4570
ag4
(I288
I2656
I32
I32
tp4571
Rp4572
ag4
(I320
I2656
I32
I32
tp4573
Rp4574
ag4
(I352
I2656
I32
I32
tp4575
Rp4576
ag4
(I384
I2656
I32
I32
tp4577
Rp4578
ag4
(I416
I2656
I32
I32
tp4579
Rp4580
ag4
(I448
I2656
I32
I32
tp4581
Rp4582
ag4
(I480
I2656
I32
I32
tp4583
Rp4584
ag4
(I512
I2656
I32
I32
tp4585
Rp4586
ag4
(I544
I2656
I32
I32
tp4587
Rp4588
ag4
(I576
I2656
I32
I32
tp4589
Rp4590
ag4
(I608
I2656
I32
I32
tp4591
Rp4592
ag4
(I640
I2656
I32
I32
tp4593
Rp4594
ag4
(I672
I2656
I32
I32
tp4595
Rp4596
ag4
(I704
I2656
I32
I32
tp4597
Rp4598
ag4
(I736
I2656
I32
I32
tp4599
Rp4600
ag4
(I928
I2656
I32
I32
tp4601
Rp4602
ag4
(I1440
I2656
I32
I32
tp4603
Rp4604
ag4
(I1472
I2656
I32
I32
tp4605
Rp4606
ag4
(I1504
I2656
I32
I32
tp4607
Rp4608
ag4
(I1920
I2656
I32
I32
tp4609
Rp4610
ag4
(I1952
I2656
I32
I32
tp4611
Rp4612
ag4
(I1984
I2656
I32
I32
tp4613
Rp4614
ag4
(I2016
I2656
I32
I32
tp4615
Rp4616
ag4
(I2336
I2656
I32
I32
tp4617
Rp4618
ag4
(I2368
I2656
I32
I32
tp4619
Rp4620
ag4
(I2400
I2656
I32
I32
tp4621
Rp4622
ag4
(I2432
I2656
I32
I32
tp4623
Rp4624
ag4
(I2784
I2656
I32
I32
tp4625
Rp4626
ag4
(I2816
I2656
I32
I32
tp4627
Rp4628
ag4
(I2848
I2656
I32
I32
tp4629
Rp4630
ag4
(I2880
I2656
I32
I32
tp4631
Rp4632
ag4
(I3168
I2656
I32
I32
tp4633
Rp4634
ag4
(I0
I2688
I32
I32
tp4635
Rp4636
ag4
(I32
I2688
I32
I32
tp4637
Rp4638
ag4
(I64
I2688
I32
I32
tp4639
Rp4640
ag4
(I96
I2688
I32
I32
tp4641
Rp4642
ag4
(I256
I2688
I32
I32
tp4643
Rp4644
ag4
(I288
I2688
I32
I32
tp4645
Rp4646
ag4
(I928
I2688
I32
I32
tp4647
Rp4648
ag4
(I1376
I2688
I32
I32
tp4649
Rp4650
ag4
(I1408
I2688
I32
I32
tp4651
Rp4652
ag4
(I1440
I2688
I32
I32
tp4653
Rp4654
ag4
(I1504
I2688
I32
I32
tp4655
Rp4656
ag4
(I2336
I2688
I32
I32
tp4657
Rp4658
ag4
(I2368
I2688
I32
I32
tp4659
Rp4660
ag4
(I2400
I2688
I32
I32
tp4661
Rp4662
ag4
(I2432
I2688
I32
I32
tp4663
Rp4664
ag4
(I2784
I2688
I32
I32
tp4665
Rp4666
ag4
(I2816
I2688
I32
I32
tp4667
Rp4668
ag4
(I2848
I2688
I32
I32
tp4669
Rp4670
ag4
(I2880
I2688
I32
I32
tp4671
Rp4672
ag4
(I3168
I2688
I32
I32
tp4673
Rp4674
ag4
(I0
I2720
I32
I32
tp4675
Rp4676
ag4
(I256
I2720
I32
I32
tp4677
Rp4678
ag4
(I288
I2720
I32
I32
tp4679
Rp4680
ag4
(I928
I2720
I32
I32
tp4681
Rp4682
ag4
(I1312
I2720
I32
I32
tp4683
Rp4684
ag4
(I1344
I2720
I32
I32
tp4685
Rp4686
ag4
(I1376
I2720
I32
I32
tp4687
Rp4688
ag4
(I1504
I2720
I32
I32
tp4689
Rp4690
ag4
(I3168
I2720
I32
I32
tp4691
Rp4692
ag4
(I0
I2752
I32
I32
tp4693
Rp4694
ag4
(I256
I2752
I32
I32
tp4695
Rp4696
ag4
(I288
I2752
I32
I32
tp4697
Rp4698
ag4
(I384
I2752
I32
I32
tp4699
Rp4700
ag4
(I416
I2752
I32
I32
tp4701
Rp4702
ag4
(I448
I2752
I32
I32
tp4703
Rp4704
ag4
(I480
I2752
I32
I32
tp4705
Rp4706
ag4
(I512
I2752
I32
I32
tp4707
Rp4708
ag4
(I544
I2752
I32
I32
tp4709
Rp4710
ag4
(I576
I2752
I32
I32
tp4711
Rp4712
ag4
(I608
I2752
I32
I32
tp4713
Rp4714
ag4
(I640
I2752
I32
I32
tp4715
Rp4716
ag4
(I672
I2752
I32
I32
tp4717
Rp4718
ag4
(I704
I2752
I32
I32
tp4719
Rp4720
ag4
(I736
I2752
I32
I32
tp4721
Rp4722
ag4
(I768
I2752
I32
I32
tp4723
Rp4724
ag4
(I800
I2752
I32
I32
tp4725
Rp4726
ag4
(I832
I2752
I32
I32
tp4727
Rp4728
ag4
(I864
I2752
I32
I32
tp4729
Rp4730
ag4
(I896
I2752
I32
I32
tp4731
Rp4732
ag4
(I928
I2752
I32
I32
tp4733
Rp4734
ag4
(I1248
I2752
I32
I32
tp4735
Rp4736
ag4
(I1280
I2752
I32
I32
tp4737
Rp4738
ag4
(I1312
I2752
I32
I32
tp4739
Rp4740
ag4
(I1504
I2752
I32
I32
tp4741
Rp4742
ag4
(I2144
I2752
I32
I32
tp4743
Rp4744
ag4
(I2176
I2752
I32
I32
tp4745
Rp4746
ag4
(I2208
I2752
I32
I32
tp4747
Rp4748
ag4
(I2240
I2752
I32
I32
tp4749
Rp4750
ag4
(I3168
I2752
I32
I32
tp4751
Rp4752
ag4
(I0
I2784
I32
I32
tp4753
Rp4754
ag4
(I192
I2784
I32
I32
tp4755
Rp4756
ag4
(I224
I2784
I32
I32
tp4757
Rp4758
ag4
(I256
I2784
I32
I32
tp4759
Rp4760
ag4
(I288
I2784
I32
I32
tp4761
Rp4762
ag4
(I864
I2784
I32
I32
tp4763
Rp4764
ag4
(I896
I2784
I32
I32
tp4765
Rp4766
ag4
(I928
I2784
I32
I32
tp4767
Rp4768
ag4
(I1184
I2784
I32
I32
tp4769
Rp4770
ag4
(I1216
I2784
I32
I32
tp4771
Rp4772
ag4
(I1248
I2784
I32
I32
tp4773
Rp4774
ag4
(I1504
I2784
I32
I32
tp4775
Rp4776
ag4
(I2144
I2784
I32
I32
tp4777
Rp4778
ag4
(I2240
I2784
I32
I32
tp4779
Rp4780
ag4
(I2912
I2784
I32
I32
tp4781
Rp4782
ag4
(I2944
I2784
I32
I32
tp4783
Rp4784
ag4
(I2976
I2784
I32
I32
tp4785
Rp4786
ag4
(I3168
I2784
I32
I32
tp4787
Rp4788
ag4
(I0
I2816
I32
I32
tp4789
Rp4790
ag4
(I192
I2816
I32
I32
tp4791
Rp4792
ag4
(I288
I2816
I32
I32
tp4793
Rp4794
ag4
(I544
I2816
I32
I32
tp4795
Rp4796
ag4
(I576
I2816
I32
I32
tp4797
Rp4798
ag4
(I608
I2816
I32
I32
tp4799
Rp4800
ag4
(I1120
I2816
I32
I32
tp4801
Rp4802
ag4
(I1152
I2816
I32
I32
tp4803
Rp4804
ag4
(I1184
I2816
I32
I32
tp4805
Rp4806
ag4
(I1504
I2816
I32
I32
tp4807
Rp4808
ag4
(I2144
I2816
I32
I32
tp4809
Rp4810
ag4
(I2240
I2816
I32
I32
tp4811
Rp4812
ag4
(I2912
I2816
I32
I32
tp4813
Rp4814
ag4
(I2976
I2816
I32
I32
tp4815
Rp4816
ag4
(I3168
I2816
I32
I32
tp4817
Rp4818
ag4
(I0
I2848
I32
I32
tp4819
Rp4820
ag4
(I32
I2848
I32
I32
tp4821
Rp4822
ag4
(I64
I2848
I32
I32
tp4823
Rp4824
ag4
(I96
I2848
I32
I32
tp4825
Rp4826
ag4
(I128
I2848
I32
I32
tp4827
Rp4828
ag4
(I160
I2848
I32
I32
tp4829
Rp4830
ag4
(I192
I2848
I32
I32
tp4831
Rp4832
ag4
(I288
I2848
I32
I32
tp4833
Rp4834
ag4
(I320
I2848
I32
I32
tp4835
Rp4836
ag4
(I352
I2848
I32
I32
tp4837
Rp4838
ag4
(I384
I2848
I32
I32
tp4839
Rp4840
ag4
(I416
I2848
I32
I32
tp4841
Rp4842
ag4
(I448
I2848
I32
I32
tp4843
Rp4844
ag4
(I480
I2848
I32
I32
tp4845
Rp4846
ag4
(I512
I2848
I32
I32
tp4847
Rp4848
ag4
(I544
I2848
I32
I32
tp4849
Rp4850
ag4
(I576
I2848
I32
I32
tp4851
Rp4852
ag4
(I608
I2848
I32
I32
tp4853
Rp4854
ag4
(I640
I2848
I32
I32
tp4855
Rp4856
ag4
(I672
I2848
I32
I32
tp4857
Rp4858
ag4
(I704
I2848
I32
I32
tp4859
Rp4860
ag4
(I736
I2848
I32
I32
tp4861
Rp4862
ag4
(I768
I2848
I32
I32
tp4863
Rp4864
ag4
(I800
I2848
I32
I32
tp4865
Rp4866
ag4
(I832
I2848
I32
I32
tp4867
Rp4868
ag4
(I864
I2848
I32
I32
tp4869
Rp4870
ag4
(I896
I2848
I32
I32
tp4871
Rp4872
ag4
(I928
I2848
I32
I32
tp4873
Rp4874
ag4
(I960
I2848
I32
I32
tp4875
Rp4876
ag4
(I992
I2848
I32
I32
tp4877
Rp4878
ag4
(I1024
I2848
I32
I32
tp4879
Rp4880
ag4
(I1056
I2848
I32
I32
tp4881
Rp4882
ag4
(I1088
I2848
I32
I32
tp4883
Rp4884
ag4
(I1120
I2848
I32
I32
tp4885
Rp4886
ag4
(I1152
I2848
I32
I32
tp4887
Rp4888
ag4
(I1184
I2848
I32
I32
tp4889
Rp4890
ag4
(I1216
I2848
I32
I32
tp4891
Rp4892
ag4
(I1248
I2848
I32
I32
tp4893
Rp4894
ag4
(I1280
I2848
I32
I32
tp4895
Rp4896
ag4
(I1312
I2848
I32
I32
tp4897
Rp4898
ag4
(I1344
I2848
I32
I32
tp4899
Rp4900
ag4
(I1376
I2848
I32
I32
tp4901
Rp4902
ag4
(I1408
I2848
I32
I32
tp4903
Rp4904
ag4
(I1440
I2848
I32
I32
tp4905
Rp4906
ag4
(I1472
I2848
I32
I32
tp4907
Rp4908
ag4
(I1504
I2848
I32
I32
tp4909
Rp4910
ag4
(I1536
I2848
I32
I32
tp4911
Rp4912
ag4
(I1568
I2848
I32
I32
tp4913
Rp4914
ag4
(I1600
I2848
I32
I32
tp4915
Rp4916
ag4
(I1632
I2848
I32
I32
tp4917
Rp4918
ag4
(I1664
I2848
I32
I32
tp4919
Rp4920
ag4
(I1696
I2848
I32
I32
tp4921
Rp4922
ag4
(I1728
I2848
I32
I32
tp4923
Rp4924
ag4
(I1760
I2848
I32
I32
tp4925
Rp4926
ag4
(I1792
I2848
I32
I32
tp4927
Rp4928
ag4
(I1824
I2848
I32
I32
tp4929
Rp4930
ag4
(I1856
I2848
I32
I32
tp4931
Rp4932
ag4
(I1888
I2848
I32
I32
tp4933
Rp4934
ag4
(I1920
I2848
I32
I32
tp4935
Rp4936
ag4
(I1952
I2848
I32
I32
tp4937
Rp4938
ag4
(I1984
I2848
I32
I32
tp4939
Rp4940
ag4
(I2016
I2848
I32
I32
tp4941
Rp4942
ag4
(I2048
I2848
I32
I32
tp4943
Rp4944
ag4
(I2080
I2848
I32
I32
tp4945
Rp4946
ag4
(I2112
I2848
I32
I32
tp4947
Rp4948
ag4
(I2144
I2848
I32
I32
tp4949
Rp4950
ag4
(I2240
I2848
I32
I32
tp4951
Rp4952
ag4
(I2272
I2848
I32
I32
tp4953
Rp4954
ag4
(I2304
I2848
I32
I32
tp4955
Rp4956
ag4
(I2336
I2848
I32
I32
tp4957
Rp4958
ag4
(I2368
I2848
I32
I32
tp4959
Rp4960
ag4
(I2400
I2848
I32
I32
tp4961
Rp4962
ag4
(I2432
I2848
I32
I32
tp4963
Rp4964
ag4
(I2464
I2848
I32
I32
tp4965
Rp4966
ag4
(I2496
I2848
I32
I32
tp4967
Rp4968
ag4
(I2528
I2848
I32
I32
tp4969
Rp4970
ag4
(I2560
I2848
I32
I32
tp4971
Rp4972
ag4
(I2592
I2848
I32
I32
tp4973
Rp4974
ag4
(I2624
I2848
I32
I32
tp4975
Rp4976
ag4
(I2656
I2848
I32
I32
tp4977
Rp4978
ag4
(I2688
I2848
I32
I32
tp4979
Rp4980
ag4
(I2720
I2848
I32
I32
tp4981
Rp4982
ag4
(I2752
I2848
I32
I32
tp4983
Rp4984
ag4
(I2784
I2848
I32
I32
tp4985
Rp4986
ag4
(I2816
I2848
I32
I32
tp4987
Rp4988
ag4
(I2848
I2848
I32
I32
tp4989
Rp4990
ag4
(I2880
I2848
I32
I32
tp4991
Rp4992
ag4
(I2912
I2848
I32
I32
tp4993
Rp4994
ag4
(I2976
I2848
I32
I32
tp4995
Rp4996
ag4
(I3008
I2848
I32
I32
tp4997
Rp4998
ag4
(I3040
I2848
I32
I32
tp4999
Rp5000
ag4
(I3072
I2848
I32
I32
tp5001
Rp5002
ag4
(I3104
I2848
I32
I32
tp5003
Rp5004
ag4
(I3136
I2848
I32
I32
tp5005
Rp5006
ag4
(I3168
I2848
I32
I32
tp5007
Rp5008
asS'checkpoints'
p5009
(lp5010
g4
(I1920
I160
I32
I32
tp5011
Rp5012
ag4
(I320
I736
I32
I32
tp5013
Rp5014
ag4
(I2400
I1280
I32
I32
tp5015
Rp5016
ag4
(I672
I1632
I32
I32
tp5017
Rp5018
ag4
(I992
I2304
I32
I32
tp5019
Rp5020
asS'hazardSplatters'
p5021
(lp5022
sS'splatters'
p5023
(lp5024
sS'enemies'
p5025
(lp5026
(ienemyModule
Enemy
p5027
(dp5028
S'box'
p5029
g4
(I128
I1088
I32
I32
tp5030
Rp5031
sS'vSpeed'
p5032
I0
sS'enragedAnimTimer'
p5033
I0
sS'curFrame'
p5034
I0
sS'tryJump'
p5035
I00
sS'enragedTimer'
p5036
I0
sS'alive'
p5037
I01
sS'facing'
p5038
S'L'
p5039
sS'frameTimer'
p5040
I0
sS'turnTimer'
p5041
I170
sba(ienemyModule
Enemy
p5042
(dp5043
g5029
g4
(I2624
I2336
I32
I32
tp5044
Rp5045
sg5032
I0
sg5033
I0
sg5034
I0
sg5035
I00
sg5036
I0
sg5037
I01
sg5038
g5039
sg5040
I0
sg5041
I180
sbasS'size'
p5046
(I3200
I2880
tp5047
sb.