(ilevelModule
Level
p0
(dp1
S'index'
p2
I5
sS'goal'
p3
cpygame
__rect_constructor
p4
(I32
I2976
I32
I32
tp5
Rp6
sS'paintBalls'
p7
(lp8
sS'messages'
p9
(lp10
(S'Final Day'
p11
(I200
I55
tp12
tp13
a(S"I didn't think you'd come back"
p14
(I1280
I75
tp15
tp16
a(S'Get me out'
p17
(I210
I815
tp18
tp19
a(S'You have to go farther'
p20
(I2035
I1055
tp21
tp22
a(S"I'm down here"
p23
(I1710
I1280
tp24
tp25
a(S'Down here'
p26
(I2220
I1624
tp27
tp28
a(S'Up here'
p29
(I2100
I1780
tp30
tp31
a(S"You're the only person I've"
p32
(I1800
I2660
tp33
tp34
a(S'seen in months'
p35
(I1860
I2710
tp36
tp37
a(S'Almost there...'
p38
(I1240
I2490
tp39
tp40
a(S"I'm in here"
p41
(I660
I2860
tp42
tp43
asS'hazards'
p44
(lp45
g4
(I3136
I128
I32
I32
tp46
Rp47
ag4
(I3136
I160
I32
I32
tp48
Rp49
ag4
(I576
I192
I32
I32
tp50
Rp51
ag4
(I608
I192
I32
I32
tp52
Rp53
ag4
(I640
I192
I32
I32
tp54
Rp55
ag4
(I3040
I192
I32
I32
tp56
Rp57
ag4
(I3040
I224
I32
I32
tp58
Rp59
ag4
(I1312
I256
I32
I32
tp60
Rp61
ag4
(I1504
I256
I32
I32
tp62
Rp63
ag4
(I1536
I256
I32
I32
tp64
Rp65
ag4
(I1600
I256
I32
I32
tp66
Rp67
ag4
(I1632
I256
I32
I32
tp68
Rp69
ag4
(I1696
I256
I32
I32
tp70
Rp71
ag4
(I1728
I256
I32
I32
tp72
Rp73
ag4
(I1792
I256
I32
I32
tp74
Rp75
ag4
(I1824
I256
I32
I32
tp76
Rp77
ag4
(I1888
I256
I32
I32
tp78
Rp79
ag4
(I1920
I256
I32
I32
tp80
Rp81
ag4
(I1984
I256
I32
I32
tp82
Rp83
ag4
(I2016
I256
I32
I32
tp84
Rp85
ag4
(I2080
I256
I32
I32
tp86
Rp87
ag4
(I2112
I256
I32
I32
tp88
Rp89
ag4
(I2176
I256
I32
I32
tp90
Rp91
ag4
(I2208
I256
I32
I32
tp92
Rp93
ag4
(I2368
I320
I32
I32
tp94
Rp95
ag4
(I2400
I320
I32
I32
tp96
Rp97
ag4
(I2432
I320
I32
I32
tp98
Rp99
ag4
(I2464
I320
I32
I32
tp100
Rp101
ag4
(I608
I416
I32
I32
tp102
Rp103
ag4
(I160
I448
I32
I32
tp104
Rp105
ag4
(I192
I448
I32
I32
tp106
Rp107
ag4
(I576
I448
I32
I32
tp108
Rp109
ag4
(I1184
I480
I32
I32
tp110
Rp111
ag4
(I1216
I480
I32
I32
tp112
Rp113
ag4
(I1248
I480
I32
I32
tp114
Rp115
ag4
(I2912
I480
I32
I32
tp116
Rp117
ag4
(I2944
I480
I32
I32
tp118
Rp119
ag4
(I2240
I608
I32
I32
tp120
Rp121
ag4
(I2272
I608
I32
I32
tp122
Rp123
ag4
(I2304
I608
I32
I32
tp124
Rp125
ag4
(I2336
I608
I32
I32
tp126
Rp127
ag4
(I2368
I608
I32
I32
tp128
Rp129
ag4
(I2400
I608
I32
I32
tp130
Rp131
ag4
(I2432
I608
I32
I32
tp132
Rp133
ag4
(I2464
I608
I32
I32
tp134
Rp135
ag4
(I2496
I608
I32
I32
tp136
Rp137
ag4
(I32
I864
I32
I32
tp138
Rp139
ag4
(I64
I864
I32
I32
tp140
Rp141
ag4
(I96
I864
I32
I32
tp142
Rp143
ag4
(I128
I864
I32
I32
tp144
Rp145
ag4
(I160
I864
I32
I32
tp146
Rp147
ag4
(I192
I864
I32
I32
tp148
Rp149
ag4
(I224
I864
I32
I32
tp150
Rp151
ag4
(I256
I864
I32
I32
tp152
Rp153
ag4
(I288
I864
I32
I32
tp154
Rp155
ag4
(I320
I864
I32
I32
tp156
Rp157
ag4
(I352
I864
I32
I32
tp158
Rp159
ag4
(I384
I864
I32
I32
tp160
Rp161
ag4
(I416
I864
I32
I32
tp162
Rp163
ag4
(I448
I864
I32
I32
tp164
Rp165
ag4
(I480
I864
I32
I32
tp166
Rp167
ag4
(I512
I864
I32
I32
tp168
Rp169
ag4
(I672
I864
I32
I32
tp170
Rp171
ag4
(I704
I864
I32
I32
tp172
Rp173
ag4
(I736
I864
I32
I32
tp174
Rp175
ag4
(I768
I864
I32
I32
tp176
Rp177
ag4
(I800
I864
I32
I32
tp178
Rp179
ag4
(I832
I864
I32
I32
tp180
Rp181
ag4
(I864
I864
I32
I32
tp182
Rp183
ag4
(I896
I864
I32
I32
tp184
Rp185
ag4
(I928
I864
I32
I32
tp186
Rp187
ag4
(I960
I864
I32
I32
tp188
Rp189
ag4
(I992
I864
I32
I32
tp190
Rp191
ag4
(I1024
I864
I32
I32
tp192
Rp193
ag4
(I1056
I864
I32
I32
tp194
Rp195
ag4
(I1088
I864
I32
I32
tp196
Rp197
ag4
(I1120
I864
I32
I32
tp198
Rp199
ag4
(I1152
I864
I32
I32
tp200
Rp201
ag4
(I1184
I864
I32
I32
tp202
Rp203
ag4
(I1216
I864
I32
I32
tp204
Rp205
ag4
(I1248
I864
I32
I32
tp206
Rp207
ag4
(I1312
I1056
I32
I32
tp208
Rp209
ag4
(I1952
I1056
I32
I32
tp210
Rp211
ag4
(I2528
I1056
I32
I32
tp212
Rp213
ag4
(I2272
I1120
I32
I32
tp214
Rp215
ag4
(I2304
I1120
I32
I32
tp216
Rp217
ag4
(I2336
I1120
I32
I32
tp218
Rp219
ag4
(I928
I1152
I32
I32
tp220
Rp221
ag4
(I992
I1152
I32
I32
tp222
Rp223
ag4
(I2272
I1216
I32
I32
tp224
Rp225
ag4
(I2176
I1248
I32
I32
tp226
Rp227
ag4
(I2080
I1280
I32
I32
tp228
Rp229
ag4
(I416
I1376
I32
I32
tp230
Rp231
ag4
(I480
I1376
I32
I32
tp232
Rp233
ag4
(I800
I1376
I32
I32
tp234
Rp235
ag4
(I832
I1376
I32
I32
tp236
Rp237
ag4
(I864
I1376
I32
I32
tp238
Rp239
ag4
(I896
I1376
I32
I32
tp240
Rp241
ag4
(I928
I1376
I32
I32
tp242
Rp243
ag4
(I960
I1376
I32
I32
tp244
Rp245
ag4
(I992
I1376
I32
I32
tp246
Rp247
ag4
(I1024
I1376
I32
I32
tp248
Rp249
ag4
(I1056
I1376
I32
I32
tp250
Rp251
ag4
(I1088
I1376
I32
I32
tp252
Rp253
ag4
(I1120
I1376
I32
I32
tp254
Rp255
ag4
(I1152
I1376
I32
I32
tp256
Rp257
ag4
(I1184
I1376
I32
I32
tp258
Rp259
ag4
(I1216
I1376
I32
I32
tp260
Rp261
ag4
(I1248
I1376
I32
I32
tp262
Rp263
ag4
(I1760
I1408
I32
I32
tp264
Rp265
ag4
(I1664
I1440
I32
I32
tp266
Rp267
ag4
(I32
I1536
I32
I32
tp268
Rp269
ag4
(I64
I1536
I32
I32
tp270
Rp271
ag4
(I96
I1536
I32
I32
tp272
Rp273
ag4
(I128
I1536
I32
I32
tp274
Rp275
ag4
(I160
I1536
I32
I32
tp276
Rp277
ag4
(I192
I1536
I32
I32
tp278
Rp279
ag4
(I224
I1536
I32
I32
tp280
Rp281
ag4
(I256
I1536
I32
I32
tp282
Rp283
ag4
(I288
I1536
I32
I32
tp284
Rp285
ag4
(I320
I1536
I32
I32
tp286
Rp287
ag4
(I352
I1536
I32
I32
tp288
Rp289
ag4
(I384
I1536
I32
I32
tp290
Rp291
ag4
(I416
I1536
I32
I32
tp292
Rp293
ag4
(I448
I1536
I32
I32
tp294
Rp295
ag4
(I480
I1536
I32
I32
tp296
Rp297
ag4
(I512
I1536
I32
I32
tp298
Rp299
ag4
(I544
I1536
I32
I32
tp300
Rp301
ag4
(I576
I1536
I32
I32
tp302
Rp303
ag4
(I608
I1536
I32
I32
tp304
Rp305
ag4
(I640
I1536
I32
I32
tp306
Rp307
ag4
(I672
I1536
I32
I32
tp308
Rp309
ag4
(I704
I1536
I32
I32
tp310
Rp311
ag4
(I736
I1536
I32
I32
tp312
Rp313
ag4
(I608
I1600
I32
I32
tp314
Rp315
ag4
(I1024
I1600
I32
I32
tp316
Rp317
ag4
(I1056
I1600
I32
I32
tp318
Rp319
ag4
(I1344
I1600
I32
I32
tp320
Rp321
ag4
(I1376
I1600
I32
I32
tp322
Rp323
ag4
(I608
I1632
I32
I32
tp324
Rp325
ag4
(I1696
I1632
I32
I32
tp326
Rp327
ag4
(I2080
I1632
I32
I32
tp328
Rp329
ag4
(I3040
I1632
I32
I32
tp330
Rp331
ag4
(I3072
I1632
I32
I32
tp332
Rp333
ag4
(I672
I1664
I32
I32
tp334
Rp335
ag4
(I704
I1664
I32
I32
tp336
Rp337
ag4
(I1088
I1664
I32
I32
tp338
Rp339
ag4
(I1120
I1664
I32
I32
tp340
Rp341
ag4
(I1280
I1664
I32
I32
tp342
Rp343
ag4
(I1312
I1664
I32
I32
tp344
Rp345
ag4
(I1696
I1664
I32
I32
tp346
Rp347
ag4
(I2080
I1664
I32
I32
tp348
Rp349
ag4
(I320
I1952
I32
I32
tp350
Rp351
ag4
(I352
I1952
I32
I32
tp352
Rp353
ag4
(I384
I1952
I32
I32
tp354
Rp355
ag4
(I416
I1952
I32
I32
tp356
Rp357
ag4
(I448
I1952
I32
I32
tp358
Rp359
ag4
(I480
I1952
I32
I32
tp360
Rp361
ag4
(I512
I1952
I32
I32
tp362
Rp363
ag4
(I544
I1952
I32
I32
tp364
Rp365
ag4
(I576
I1952
I32
I32
tp366
Rp367
ag4
(I608
I1952
I32
I32
tp368
Rp369
ag4
(I640
I1952
I32
I32
tp370
Rp371
ag4
(I672
I1952
I32
I32
tp372
Rp373
ag4
(I704
I1952
I32
I32
tp374
Rp375
ag4
(I736
I1952
I32
I32
tp376
Rp377
ag4
(I768
I1952
I32
I32
tp378
Rp379
ag4
(I800
I1952
I32
I32
tp380
Rp381
ag4
(I832
I1952
I32
I32
tp382
Rp383
ag4
(I864
I1952
I32
I32
tp384
Rp385
ag4
(I896
I1952
I32
I32
tp386
Rp387
ag4
(I960
I1952
I32
I32
tp388
Rp389
ag4
(I992
I1952
I32
I32
tp390
Rp391
ag4
(I1056
I1952
I32
I32
tp392
Rp393
ag4
(I1088
I1952
I32
I32
tp394
Rp395
ag4
(I1120
I1952
I32
I32
tp396
Rp397
ag4
(I1152
I1952
I32
I32
tp398
Rp399
ag4
(I1184
I1952
I32
I32
tp400
Rp401
ag4
(I1216
I1952
I32
I32
tp402
Rp403
ag4
(I1248
I1952
I32
I32
tp404
Rp405
ag4
(I1280
I1952
I32
I32
tp406
Rp407
ag4
(I1312
I1952
I32
I32
tp408
Rp409
ag4
(I1344
I1952
I32
I32
tp410
Rp411
ag4
(I1376
I1952
I32
I32
tp412
Rp413
ag4
(I1408
I1952
I32
I32
tp414
Rp415
ag4
(I1440
I1952
I32
I32
tp416
Rp417
ag4
(I1504
I1952
I32
I32
tp418
Rp419
ag4
(I1536
I1952
I32
I32
tp420
Rp421
ag4
(I1568
I1952
I32
I32
tp422
Rp423
ag4
(I1600
I1952
I32
I32
tp424
Rp425
ag4
(I1632
I1952
I32
I32
tp426
Rp427
ag4
(I1664
I1952
I32
I32
tp428
Rp429
ag4
(I1696
I1952
I32
I32
tp430
Rp431
ag4
(I1728
I1952
I32
I32
tp432
Rp433
ag4
(I1760
I1952
I32
I32
tp434
Rp435
ag4
(I1792
I1952
I32
I32
tp436
Rp437
ag4
(I1824
I1952
I32
I32
tp438
Rp439
ag4
(I1856
I1952
I32
I32
tp440
Rp441
ag4
(I1888
I1952
I32
I32
tp442
Rp443
ag4
(I1920
I1952
I32
I32
tp444
Rp445
ag4
(I1952
I1952
I32
I32
tp446
Rp447
ag4
(I1984
I1952
I32
I32
tp448
Rp449
ag4
(I2016
I1952
I32
I32
tp450
Rp451
ag4
(I2048
I1952
I32
I32
tp452
Rp453
ag4
(I2080
I1952
I32
I32
tp454
Rp455
ag4
(I2112
I1952
I32
I32
tp456
Rp457
ag4
(I2144
I1952
I32
I32
tp458
Rp459
ag4
(I2176
I1952
I32
I32
tp460
Rp461
ag4
(I2208
I1952
I32
I32
tp462
Rp463
ag4
(I2240
I1952
I32
I32
tp464
Rp465
ag4
(I2272
I1952
I32
I32
tp466
Rp467
ag4
(I224
I2112
I32
I32
tp468
Rp469
ag4
(I256
I2112
I32
I32
tp470
Rp471
ag4
(I1824
I2112
I32
I32
tp472
Rp473
ag4
(I672
I2144
I32
I32
tp474
Rp475
ag4
(I704
I2144
I32
I32
tp476
Rp477
ag4
(I1600
I2144
I32
I32
tp478
Rp479
ag4
(I1632
I2144
I32
I32
tp480
Rp481
ag4
(I1696
I2144
I32
I32
tp482
Rp483
ag4
(I1728
I2144
I32
I32
tp484
Rp485
ag4
(I1856
I2144
I32
I32
tp486
Rp487
ag4
(I2816
I2144
I32
I32
tp488
Rp489
ag4
(I2816
I2176
I32
I32
tp490
Rp491
ag4
(I1088
I2592
I32
I32
tp492
Rp493
ag4
(I1120
I2592
I32
I32
tp494
Rp495
ag4
(I1152
I2592
I32
I32
tp496
Rp497
ag4
(I384
I2624
I32
I32
tp498
Rp499
ag4
(I1184
I2624
I32
I32
tp500
Rp501
ag4
(I1216
I2624
I32
I32
tp502
Rp503
ag4
(I1248
I2624
I32
I32
tp504
Rp505
ag4
(I1280
I2656
I32
I32
tp506
Rp507
ag4
(I1312
I2656
I32
I32
tp508
Rp509
ag4
(I1344
I2656
I32
I32
tp510
Rp511
ag4
(I384
I2688
I32
I32
tp512
Rp513
ag4
(I480
I2688
I32
I32
tp514
Rp515
ag4
(I1536
I2720
I32
I32
tp516
Rp517
ag4
(I1632
I2752
I32
I32
tp518
Rp519
ag4
(I416
I2784
I32
I32
tp520
Rp521
ag4
(I448
I2784
I32
I32
tp522
Rp523
ag4
(I1728
I2784
I32
I32
tp524
Rp525
ag4
(I256
I2880
I32
I32
tp526
Rp527
ag4
(I416
I2880
I32
I32
tp528
Rp529
ag4
(I576
I2880
I32
I32
tp530
Rp531
ag4
(I1952
I2880
I32
I32
tp532
Rp533
ag4
(I1984
I2880
I32
I32
tp534
Rp535
ag4
(I2016
I2880
I32
I32
tp536
Rp537
ag4
(I2784
I2880
I32
I32
tp538
Rp539
ag4
(I2816
I2880
I32
I32
tp540
Rp541
ag4
(I2848
I2880
I32
I32
tp542
Rp543
ag4
(I2880
I2880
I32
I32
tp544
Rp545
ag4
(I2912
I2880
I32
I32
tp546
Rp547
ag4
(I2944
I2880
I32
I32
tp548
Rp549
ag4
(I2976
I2880
I32
I32
tp550
Rp551
ag4
(I3008
I2880
I32
I32
tp552
Rp553
ag4
(I3040
I2880
I32
I32
tp554
Rp555
ag4
(I3072
I2880
I32
I32
tp556
Rp557
ag4
(I3104
I2880
I32
I32
tp558
Rp559
ag4
(I3136
I2880
I32
I32
tp560
Rp561
ag4
(I128
I2912
I32
I32
tp562
Rp563
ag4
(I256
I2912
I32
I32
tp564
Rp565
ag4
(I416
I2912
I32
I32
tp566
Rp567
ag4
(I576
I2912
I32
I32
tp568
Rp569
ag4
(I2048
I2912
I32
I32
tp570
Rp571
ag4
(I2080
I2912
I32
I32
tp572
Rp573
ag4
(I2112
I2912
I32
I32
tp574
Rp575
asS'hazardRotations'
p576
(lp577
I1
aI1
aI0
aI0
aI0
aI3
aI3
aI0
aI0
aI0
aI0
aI0
aI0
aI0
aI0
aI0
aI0
aI0
aI0
aI0
aI0
aI0
aI0
aI0
aI0
aI0
aI0
aI0
aI3
aI0
aI0
aI2
aI0
aI0
aI0
aI0
aI0
aI0
aI0
aI0
aI0
aI0
aI0
aI0
aI0
aI0
aI0
aI0
aI0
aI0
aI0
aI0
aI0
aI0
aI0
aI0
aI0
aI0
aI0
aI0
aI0
aI0
aI0
aI0
aI0
aI0
aI0
aI0
aI0
aI0
aI0
aI0
aI0
aI0
aI0
aI0
aI0
aI0
aI0
aI0
aI0
aI0
aI0
aI0
aI2
aI2
aI2
aI0
aI0
aI0
aI0
aI0
aI0
aI0
aI0
aI0
aI0
aI0
aI0
aI0
aI0
aI0
aI0
aI0
aI0
aI0
aI0
aI0
aI0
aI1
aI1
aI0
aI0
aI0
aI0
aI0
aI0
aI0
aI0
aI0
aI0
aI0
aI0
aI0
aI0
aI0
aI0
aI0
aI0
aI0
aI0
aI0
aI0
aI0
aI3
aI2
aI2
aI2
aI2
aI3
aI1
aI3
aI0
aI0
aI0
aI0
aI0
aI0
aI0
aI0
aI1
aI3
aI0
aI0
aI0
aI0
aI0
aI0
aI0
aI0
aI0
aI0
aI0
aI0
aI0
aI0
aI0
aI0
aI0
aI0
aI0
aI0
aI0
aI0
aI0
aI0
aI0
aI0
aI0
aI0
aI0
aI0
aI0
aI0
aI0
aI0
aI0
aI0
aI0
aI0
aI0
aI0
aI0
aI0
aI0
aI0
aI0
aI0
aI0
aI0
aI0
aI0
aI0
aI0
aI0
aI0
aI0
aI0
aI0
aI0
aI0
aI2
aI2
aI0
aI0
aI0
aI0
aI0
aI0
aI0
aI0
aI2
aI0
aI0
aI0
aI0
aI0
aI0
aI0
aI0
aI0
aI0
aI0
aI2
aI2
aI0
aI0
aI0
aI0
aI0
aI1
aI1
aI1
aI0
aI0
aI0
aI0
aI0
aI0
aI0
aI0
aI0
aI0
aI0
aI0
aI0
aI0
aI0
aI0
aI1
aI1
aI1
aI0
aI0
aI0
asS'playerStart'
p578
(I160
I128
tp579
sS'offsetStart'
p580
(I0
I0
tp581
sS'walls'
p582
(lp583
g4
(I0
I0
I32
I32
tp584
Rp585
ag4
(I32
I0
I32
I32
tp586
Rp587
ag4
(I64
I0
I32
I32
tp588
Rp589
ag4
(I96
I0
I32
I32
tp590
Rp591
ag4
(I128
I0
I32
I32
tp592
Rp593
ag4
(I160
I0
I32
I32
tp594
Rp595
ag4
(I192
I0
I32
I32
tp596
Rp597
ag4
(I224
I0
I32
I32
tp598
Rp599
ag4
(I256
I0
I32
I32
tp600
Rp601
ag4
(I288
I0
I32
I32
tp602
Rp603
ag4
(I320
I0
I32
I32
tp604
Rp605
ag4
(I352
I0
I32
I32
tp606
Rp607
ag4
(I384
I0
I32
I32
tp608
Rp609
ag4
(I416
I0
I32
I32
tp610
Rp611
ag4
(I448
I0
I32
I32
tp612
Rp613
ag4
(I480
I0
I32
I32
tp614
Rp615
ag4
(I512
I0
I32
I32
tp616
Rp617
ag4
(I544
I0
I32
I32
tp618
Rp619
ag4
(I576
I0
I32
I32
tp620
Rp621
ag4
(I608
I0
I32
I32
tp622
Rp623
ag4
(I640
I0
I32
I32
tp624
Rp625
ag4
(I672
I0
I32
I32
tp626
Rp627
ag4
(I704
I0
I32
I32
tp628
Rp629
ag4
(I736
I0
I32
I32
tp630
Rp631
ag4
(I768
I0
I32
I32
tp632
Rp633
ag4
(I800
I0
I32
I32
tp634
Rp635
ag4
(I832
I0
I32
I32
tp636
Rp637
ag4
(I864
I0
I32
I32
tp638
Rp639
ag4
(I896
I0
I32
I32
tp640
Rp641
ag4
(I928
I0
I32
I32
tp642
Rp643
ag4
(I960
I0
I32
I32
tp644
Rp645
ag4
(I992
I0
I32
I32
tp646
Rp647
ag4
(I1024
I0
I32
I32
tp648
Rp649
ag4
(I1056
I0
I32
I32
tp650
Rp651
ag4
(I1088
I0
I32
I32
tp652
Rp653
ag4
(I1120
I0
I32
I32
tp654
Rp655
ag4
(I1152
I0
I32
I32
tp656
Rp657
ag4
(I1184
I0
I32
I32
tp658
Rp659
ag4
(I1216
I0
I32
I32
tp660
Rp661
ag4
(I1248
I0
I32
I32
tp662
Rp663
ag4
(I1280
I0
I32
I32
tp664
Rp665
ag4
(I1312
I0
I32
I32
tp666
Rp667
ag4
(I1344
I0
I32
I32
tp668
Rp669
ag4
(I1376
I0
I32
I32
tp670
Rp671
ag4
(I1408
I0
I32
I32
tp672
Rp673
ag4
(I1440
I0
I32
I32
tp674
Rp675
ag4
(I1472
I0
I32
I32
tp676
Rp677
ag4
(I1504
I0
I32
I32
tp678
Rp679
ag4
(I1536
I0
I32
I32
tp680
Rp681
ag4
(I1568
I0
I32
I32
tp682
Rp683
ag4
(I1600
I0
I32
I32
tp684
Rp685
ag4
(I1632
I0
I32
I32
tp686
Rp687
ag4
(I1664
I0
I32
I32
tp688
Rp689
ag4
(I1696
I0
I32
I32
tp690
Rp691
ag4
(I1728
I0
I32
I32
tp692
Rp693
ag4
(I1760
I0
I32
I32
tp694
Rp695
ag4
(I1792
I0
I32
I32
tp696
Rp697
ag4
(I1824
I0
I32
I32
tp698
Rp699
ag4
(I1856
I0
I32
I32
tp700
Rp701
ag4
(I1888
I0
I32
I32
tp702
Rp703
ag4
(I1920
I0
I32
I32
tp704
Rp705
ag4
(I1952
I0
I32
I32
tp706
Rp707
ag4
(I1984
I0
I32
I32
tp708
Rp709
ag4
(I2016
I0
I32
I32
tp710
Rp711
ag4
(I2048
I0
I32
I32
tp712
Rp713
ag4
(I2080
I0
I32
I32
tp714
Rp715
ag4
(I2112
I0
I32
I32
tp716
Rp717
ag4
(I2144
I0
I32
I32
tp718
Rp719
ag4
(I2176
I0
I32
I32
tp720
Rp721
ag4
(I2208
I0
I32
I32
tp722
Rp723
ag4
(I2240
I0
I32
I32
tp724
Rp725
ag4
(I2272
I0
I32
I32
tp726
Rp727
ag4
(I2304
I0
I32
I32
tp728
Rp729
ag4
(I2336
I0
I32
I32
tp730
Rp731
ag4
(I2368
I0
I32
I32
tp732
Rp733
ag4
(I2400
I0
I32
I32
tp734
Rp735
ag4
(I2432
I0
I32
I32
tp736
Rp737
ag4
(I2464
I0
I32
I32
tp738
Rp739
ag4
(I2496
I0
I32
I32
tp740
Rp741
ag4
(I2528
I0
I32
I32
tp742
Rp743
ag4
(I2560
I0
I32
I32
tp744
Rp745
ag4
(I2592
I0
I32
I32
tp746
Rp747
ag4
(I2624
I0
I32
I32
tp748
Rp749
ag4
(I2656
I0
I32
I32
tp750
Rp751
ag4
(I2688
I0
I32
I32
tp752
Rp753
ag4
(I2720
I0
I32
I32
tp754
Rp755
ag4
(I2752
I0
I32
I32
tp756
Rp757
ag4
(I2784
I0
I32
I32
tp758
Rp759
ag4
(I2816
I0
I32
I32
tp760
Rp761
ag4
(I2848
I0
I32
I32
tp762
Rp763
ag4
(I2880
I0
I32
I32
tp764
Rp765
ag4
(I2912
I0
I32
I32
tp766
Rp767
ag4
(I2944
I0
I32
I32
tp768
Rp769
ag4
(I2976
I0
I32
I32
tp770
Rp771
ag4
(I3008
I0
I32
I32
tp772
Rp773
ag4
(I3040
I0
I32
I32
tp774
Rp775
ag4
(I3072
I0
I32
I32
tp776
Rp777
ag4
(I3104
I0
I32
I32
tp778
Rp779
ag4
(I3136
I0
I32
I32
tp780
Rp781
ag4
(I3168
I0
I32
I32
tp782
Rp783
ag4
(I0
I32
I32
I32
tp784
Rp785
ag4
(I3168
I32
I32
I32
tp786
Rp787
ag4
(I0
I64
I32
I32
tp788
Rp789
ag4
(I3168
I64
I32
I32
tp790
Rp791
ag4
(I0
I96
I32
I32
tp792
Rp793
ag4
(I768
I96
I32
I32
tp794
Rp795
ag4
(I800
I96
I32
I32
tp796
Rp797
ag4
(I2976
I96
I32
I32
tp798
Rp799
ag4
(I3008
I96
I32
I32
tp800
Rp801
ag4
(I3168
I96
I32
I32
tp802
Rp803
ag4
(I0
I128
I32
I32
tp804
Rp805
ag4
(I736
I128
I32
I32
tp806
Rp807
ag4
(I768
I128
I32
I32
tp808
Rp809
ag4
(I800
I128
I32
I32
tp810
Rp811
ag4
(I832
I128
I32
I32
tp812
Rp813
ag4
(I1664
I128
I32
I32
tp814
Rp815
ag4
(I1856
I128
I32
I32
tp816
Rp817
ag4
(I2048
I128
I32
I32
tp818
Rp819
ag4
(I2912
I128
I32
I32
tp820
Rp821
ag4
(I2944
I128
I32
I32
tp822
Rp823
ag4
(I2976
I128
I32
I32
tp824
Rp825
ag4
(I3008
I128
I32
I32
tp826
Rp827
ag4
(I3168
I128
I32
I32
tp828
Rp829
ag4
(I0
I160
I32
I32
tp830
Rp831
ag4
(I32
I160
I32
I32
tp832
Rp833
ag4
(I64
I160
I32
I32
tp834
Rp835
ag4
(I96
I160
I32
I32
tp836
Rp837
ag4
(I128
I160
I32
I32
tp838
Rp839
ag4
(I160
I160
I32
I32
tp840
Rp841
ag4
(I192
I160
I32
I32
tp842
Rp843
ag4
(I224
I160
I32
I32
tp844
Rp845
ag4
(I256
I160
I32
I32
tp846
Rp847
ag4
(I288
I160
I32
I32
tp848
Rp849
ag4
(I320
I160
I32
I32
tp850
Rp851
ag4
(I352
I160
I32
I32
tp852
Rp853
ag4
(I384
I160
I32
I32
tp854
Rp855
ag4
(I416
I160
I32
I32
tp856
Rp857
ag4
(I448
I160
I32
I32
tp858
Rp859
ag4
(I480
I160
I32
I32
tp860
Rp861
ag4
(I512
I160
I32
I32
tp862
Rp863
ag4
(I704
I160
I32
I32
tp864
Rp865
ag4
(I736
I160
I32
I32
tp866
Rp867
ag4
(I832
I160
I32
I32
tp868
Rp869
ag4
(I864
I160
I32
I32
tp870
Rp871
ag4
(I1664
I160
I32
I32
tp872
Rp873
ag4
(I1856
I160
I32
I32
tp874
Rp875
ag4
(I2048
I160
I32
I32
tp876
Rp877
ag4
(I2848
I160
I32
I32
tp878
Rp879
ag4
(I2880
I160
I32
I32
tp880
Rp881
ag4
(I2912
I160
I32
I32
tp882
Rp883
ag4
(I3008
I160
I32
I32
tp884
Rp885
ag4
(I3168
I160
I32
I32
tp886
Rp887
ag4
(I512
I192
I32
I32
tp888
Rp889
ag4
(I544
I192
I32
I32
tp890
Rp891
ag4
(I672
I192
I32
I32
tp892
Rp893
ag4
(I704
I192
I32
I32
tp894
Rp895
ag4
(I864
I192
I32
I32
tp896
Rp897
ag4
(I896
I192
I32
I32
tp898
Rp899
ag4
(I1568
I192
I32
I32
tp900
Rp901
ag4
(I1664
I192
I32
I32
tp902
Rp903
ag4
(I1760
I192
I32
I32
tp904
Rp905
ag4
(I1856
I192
I32
I32
tp906
Rp907
ag4
(I1952
I192
I32
I32
tp908
Rp909
ag4
(I2048
I192
I32
I32
tp910
Rp911
ag4
(I2144
I192
I32
I32
tp912
Rp913
ag4
(I2784
I192
I32
I32
tp914
Rp915
ag4
(I2816
I192
I32
I32
tp916
Rp917
ag4
(I2848
I192
I32
I32
tp918
Rp919
ag4
(I3008
I192
I32
I32
tp920
Rp921
ag4
(I3168
I192
I32
I32
tp922
Rp923
ag4
(I0
I224
I32
I32
tp924
Rp925
ag4
(I32
I224
I32
I32
tp926
Rp927
ag4
(I64
I224
I32
I32
tp928
Rp929
ag4
(I96
I224
I32
I32
tp930
Rp931
ag4
(I128
I224
I32
I32
tp932
Rp933
ag4
(I160
I224
I32
I32
tp934
Rp935
ag4
(I192
I224
I32
I32
tp936
Rp937
ag4
(I224
I224
I32
I32
tp938
Rp939
ag4
(I256
I224
I32
I32
tp940
Rp941
ag4
(I288
I224
I32
I32
tp942
Rp943
ag4
(I320
I224
I32
I32
tp944
Rp945
ag4
(I352
I224
I32
I32
tp946
Rp947
ag4
(I384
I224
I32
I32
tp948
Rp949
ag4
(I416
I224
I32
I32
tp950
Rp951
ag4
(I448
I224
I32
I32
tp952
Rp953
ag4
(I480
I224
I32
I32
tp954
Rp955
ag4
(I512
I224
I32
I32
tp956
Rp957
ag4
(I544
I224
I32
I32
tp958
Rp959
ag4
(I576
I224
I32
I32
tp960
Rp961
ag4
(I608
I224
I32
I32
tp962
Rp963
ag4
(I640
I224
I32
I32
tp964
Rp965
ag4
(I672
I224
I32
I32
tp966
Rp967
ag4
(I704
I224
I32
I32
tp968
Rp969
ag4
(I736
I224
I32
I32
tp970
Rp971
ag4
(I768
I224
I32
I32
tp972
Rp973
ag4
(I800
I224
I32
I32
tp974
Rp975
ag4
(I832
I224
I32
I32
tp976
Rp977
ag4
(I864
I224
I32
I32
tp978
Rp979
ag4
(I896
I224
I32
I32
tp980
Rp981
ag4
(I928
I224
I32
I32
tp982
Rp983
ag4
(I960
I224
I32
I32
tp984
Rp985
ag4
(I992
I224
I32
I32
tp986
Rp987
ag4
(I1024
I224
I32
I32
tp988
Rp989
ag4
(I1056
I224
I32
I32
tp990
Rp991
ag4
(I1088
I224
I32
I32
tp992
Rp993
ag4
(I1120
I224
I32
I32
tp994
Rp995
ag4
(I1152
I224
I32
I32
tp996
Rp997
ag4
(I1184
I224
I32
I32
tp998
Rp999
ag4
(I1216
I224
I32
I32
tp1000
Rp1001
ag4
(I1248
I224
I32
I32
tp1002
Rp1003
ag4
(I1568
I224
I32
I32
tp1004
Rp1005
ag4
(I1664
I224
I32
I32
tp1006
Rp1007
ag4
(I1760
I224
I32
I32
tp1008
Rp1009
ag4
(I1856
I224
I32
I32
tp1010
Rp1011
ag4
(I1952
I224
I32
I32
tp1012
Rp1013
ag4
(I2048
I224
I32
I32
tp1014
Rp1015
ag4
(I2144
I224
I32
I32
tp1016
Rp1017
ag4
(I2720
I224
I32
I32
tp1018
Rp1019
ag4
(I2752
I224
I32
I32
tp1020
Rp1021
ag4
(I2784
I224
I32
I32
tp1022
Rp1023
ag4
(I3008
I224
I32
I32
tp1024
Rp1025
ag4
(I3136
I224
I32
I32
tp1026
Rp1027
ag4
(I3168
I224
I32
I32
tp1028
Rp1029
ag4
(I0
I256
I32
I32
tp1030
Rp1031
ag4
(I704
I256
I32
I32
tp1032
Rp1033
ag4
(I1088
I256
I32
I32
tp1034
Rp1035
ag4
(I1248
I256
I32
I32
tp1036
Rp1037
ag4
(I1280
I256
I32
I32
tp1038
Rp1039
ag4
(I1472
I256
I32
I32
tp1040
Rp1041
ag4
(I1568
I256
I32
I32
tp1042
Rp1043
ag4
(I1664
I256
I32
I32
tp1044
Rp1045
ag4
(I1760
I256
I32
I32
tp1046
Rp1047
ag4
(I1856
I256
I32
I32
tp1048
Rp1049
ag4
(I1952
I256
I32
I32
tp1050
Rp1051
ag4
(I2048
I256
I32
I32
tp1052
Rp1053
ag4
(I2144
I256
I32
I32
tp1054
Rp1055
ag4
(I2240
I256
I32
I32
tp1056
Rp1057
ag4
(I2656
I256
I32
I32
tp1058
Rp1059
ag4
(I2688
I256
I32
I32
tp1060
Rp1061
ag4
(I2720
I256
I32
I32
tp1062
Rp1063
ag4
(I3008
I256
I32
I32
tp1064
Rp1065
ag4
(I3168
I256
I32
I32
tp1066
Rp1067
ag4
(I0
I288
I32
I32
tp1068
Rp1069
ag4
(I704
I288
I32
I32
tp1070
Rp1071
ag4
(I1088
I288
I32
I32
tp1072
Rp1073
ag4
(I1120
I288
I32
I32
tp1074
Rp1075
ag4
(I1152
I288
I32
I32
tp1076
Rp1077
ag4
(I1184
I288
I32
I32
tp1078
Rp1079
ag4
(I1216
I288
I32
I32
tp1080
Rp1081
ag4
(I1248
I288
I32
I32
tp1082
Rp1083
ag4
(I1280
I288
I32
I32
tp1084
Rp1085
ag4
(I1312
I288
I32
I32
tp1086
Rp1087
ag4
(I1344
I288
I32
I32
tp1088
Rp1089
ag4
(I1376
I288
I32
I32
tp1090
Rp1091
ag4
(I1408
I288
I32
I32
tp1092
Rp1093
ag4
(I1440
I288
I32
I32
tp1094
Rp1095
ag4
(I1472
I288
I32
I32
tp1096
Rp1097
ag4
(I1504
I288
I32
I32
tp1098
Rp1099
ag4
(I1536
I288
I32
I32
tp1100
Rp1101
ag4
(I1568
I288
I32
I32
tp1102
Rp1103
ag4
(I1600
I288
I32
I32
tp1104
Rp1105
ag4
(I1632
I288
I32
I32
tp1106
Rp1107
ag4
(I1664
I288
I32
I32
tp1108
Rp1109
ag4
(I1696
I288
I32
I32
tp1110
Rp1111
ag4
(I1728
I288
I32
I32
tp1112
Rp1113
ag4
(I1760
I288
I32
I32
tp1114
Rp1115
ag4
(I1792
I288
I32
I32
tp1116
Rp1117
ag4
(I1824
I288
I32
I32
tp1118
Rp1119
ag4
(I1856
I288
I32
I32
tp1120
Rp1121
ag4
(I1888
I288
I32
I32
tp1122
Rp1123
ag4
(I1920
I288
I32
I32
tp1124
Rp1125
ag4
(I1952
I288
I32
I32
tp1126
Rp1127
ag4
(I1984
I288
I32
I32
tp1128
Rp1129
ag4
(I2016
I288
I32
I32
tp1130
Rp1131
ag4
(I2048
I288
I32
I32
tp1132
Rp1133
ag4
(I2080
I288
I32
I32
tp1134
Rp1135
ag4
(I2112
I288
I32
I32
tp1136
Rp1137
ag4
(I2144
I288
I32
I32
tp1138
Rp1139
ag4
(I2176
I288
I32
I32
tp1140
Rp1141
ag4
(I2208
I288
I32
I32
tp1142
Rp1143
ag4
(I2240
I288
I32
I32
tp1144
Rp1145
ag4
(I2272
I288
I32
I32
tp1146
Rp1147
ag4
(I2304
I288
I32
I32
tp1148
Rp1149
ag4
(I2336
I288
I32
I32
tp1150
Rp1151
ag4
(I2496
I288
I32
I32
tp1152
Rp1153
ag4
(I2528
I288
I32
I32
tp1154
Rp1155
ag4
(I2560
I288
I32
I32
tp1156
Rp1157
ag4
(I2592
I288
I32
I32
tp1158
Rp1159
ag4
(I2624
I288
I32
I32
tp1160
Rp1161
ag4
(I2656
I288
I32
I32
tp1162
Rp1163
ag4
(I3008
I288
I32
I32
tp1164
Rp1165
ag4
(I3040
I288
I32
I32
tp1166
Rp1167
ag4
(I3072
I288
I32
I32
tp1168
Rp1169
ag4
(I3104
I288
I32
I32
tp1170
Rp1171
ag4
(I3168
I288
I32
I32
tp1172
Rp1173
ag4
(I0
I320
I32
I32
tp1174
Rp1175
ag4
(I704
I320
I32
I32
tp1176
Rp1177
ag4
(I1088
I320
I32
I32
tp1178
Rp1179
ag4
(I2336
I320
I32
I32
tp1180
Rp1181
ag4
(I2496
I320
I32
I32
tp1182
Rp1183
ag4
(I3008
I320
I32
I32
tp1184
Rp1185
ag4
(I3168
I320
I32
I32
tp1186
Rp1187
ag4
(I0
I352
I32
I32
tp1188
Rp1189
ag4
(I128
I352
I32
I32
tp1190
Rp1191
ag4
(I160
I352
I32
I32
tp1192
Rp1193
ag4
(I192
I352
I32
I32
tp1194
Rp1195
ag4
(I224
I352
I32
I32
tp1196
Rp1197
ag4
(I256
I352
I32
I32
tp1198
Rp1199
ag4
(I288
I352
I32
I32
tp1200
Rp1201
ag4
(I320
I352
I32
I32
tp1202
Rp1203
ag4
(I352
I352
I32
I32
tp1204
Rp1205
ag4
(I384
I352
I32
I32
tp1206
Rp1207
ag4
(I416
I352
I32
I32
tp1208
Rp1209
ag4
(I448
I352
I32
I32
tp1210
Rp1211
ag4
(I480
I352
I32
I32
tp1212
Rp1213
ag4
(I512
I352
I32
I32
tp1214
Rp1215
ag4
(I704
I352
I32
I32
tp1216
Rp1217
ag4
(I1088
I352
I32
I32
tp1218
Rp1219
ag4
(I1280
I352
I32
I32
tp1220
Rp1221
ag4
(I1312
I352
I32
I32
tp1222
Rp1223
ag4
(I1344
I352
I32
I32
tp1224
Rp1225
ag4
(I1376
I352
I32
I32
tp1226
Rp1227
ag4
(I1408
I352
I32
I32
tp1228
Rp1229
ag4
(I1440
I352
I32
I32
tp1230
Rp1231
ag4
(I1472
I352
I32
I32
tp1232
Rp1233
ag4
(I1504
I352
I32
I32
tp1234
Rp1235
ag4
(I1536
I352
I32
I32
tp1236
Rp1237
ag4
(I1568
I352
I32
I32
tp1238
Rp1239
ag4
(I1600
I352
I32
I32
tp1240
Rp1241
ag4
(I1632
I352
I32
I32
tp1242
Rp1243
ag4
(I1664
I352
I32
I32
tp1244
Rp1245
ag4
(I1696
I352
I32
I32
tp1246
Rp1247
ag4
(I1728
I352
I32
I32
tp1248
Rp1249
ag4
(I1760
I352
I32
I32
tp1250
Rp1251
ag4
(I1792
I352
I32
I32
tp1252
Rp1253
ag4
(I1824
I352
I32
I32
tp1254
Rp1255
ag4
(I1856
I352
I32
I32
tp1256
Rp1257
ag4
(I1888
I352
I32
I32
tp1258
Rp1259
ag4
(I1920
I352
I32
I32
tp1260
Rp1261
ag4
(I1952
I352
I32
I32
tp1262
Rp1263
ag4
(I1984
I352
I32
I32
tp1264
Rp1265
ag4
(I2016
I352
I32
I32
tp1266
Rp1267
ag4
(I2048
I352
I32
I32
tp1268
Rp1269
ag4
(I2336
I352
I32
I32
tp1270
Rp1271
ag4
(I2368
I352
I32
I32
tp1272
Rp1273
ag4
(I2400
I352
I32
I32
tp1274
Rp1275
ag4
(I2432
I352
I32
I32
tp1276
Rp1277
ag4
(I2464
I352
I32
I32
tp1278
Rp1279
ag4
(I2496
I352
I32
I32
tp1280
Rp1281
ag4
(I2528
I352
I32
I32
tp1282
Rp1283
ag4
(I2560
I352
I32
I32
tp1284
Rp1285
ag4
(I2592
I352
I32
I32
tp1286
Rp1287
ag4
(I2624
I352
I32
I32
tp1288
Rp1289
ag4
(I2656
I352
I32
I32
tp1290
Rp1291
ag4
(I2688
I352
I32
I32
tp1292
Rp1293
ag4
(I2720
I352
I32
I32
tp1294
Rp1295
ag4
(I2752
I352
I32
I32
tp1296
Rp1297
ag4
(I2784
I352
I32
I32
tp1298
Rp1299
ag4
(I2816
I352
I32
I32
tp1300
Rp1301
ag4
(I2848
I352
I32
I32
tp1302
Rp1303
ag4
(I2880
I352
I32
I32
tp1304
Rp1305
ag4
(I2912
I352
I32
I32
tp1306
Rp1307
ag4
(I2944
I352
I32
I32
tp1308
Rp1309
ag4
(I2976
I352
I32
I32
tp1310
Rp1311
ag4
(I3008
I352
I32
I32
tp1312
Rp1313
ag4
(I3168
I352
I32
I32
tp1314
Rp1315
ag4
(I0
I384
I32
I32
tp1316
Rp1317
ag4
(I512
I384
I32
I32
tp1318
Rp1319
ag4
(I704
I384
I32
I32
tp1320
Rp1321
ag4
(I896
I384
I32
I32
tp1322
Rp1323
ag4
(I928
I384
I32
I32
tp1324
Rp1325
ag4
(I960
I384
I32
I32
tp1326
Rp1327
ag4
(I1088
I384
I32
I32
tp1328
Rp1329
ag4
(I1280
I384
I32
I32
tp1330
Rp1331
ag4
(I2048
I384
I32
I32
tp1332
Rp1333
ag4
(I2080
I384
I32
I32
tp1334
Rp1335
ag4
(I2112
I384
I32
I32
tp1336
Rp1337
ag4
(I3104
I384
I32
I32
tp1338
Rp1339
ag4
(I3136
I384
I32
I32
tp1340
Rp1341
ag4
(I3168
I384
I32
I32
tp1342
Rp1343
ag4
(I0
I416
I32
I32
tp1344
Rp1345
ag4
(I32
I416
I32
I32
tp1346
Rp1347
ag4
(I64
I416
I32
I32
tp1348
Rp1349
ag4
(I512
I416
I32
I32
tp1350
Rp1351
ag4
(I544
I416
I32
I32
tp1352
Rp1353
ag4
(I576
I416
I32
I32
tp1354
Rp1355
ag4
(I896
I416
I32
I32
tp1356
Rp1357
ag4
(I960
I416
I32
I32
tp1358
Rp1359
ag4
(I992
I416
I32
I32
tp1360
Rp1361
ag4
(I1024
I416
I32
I32
tp1362
Rp1363
ag4
(I1280
I416
I32
I32
tp1364
Rp1365
ag4
(I2112
I416
I32
I32
tp1366
Rp1367
ag4
(I2144
I416
I32
I32
tp1368
Rp1369
ag4
(I2176
I416
I32
I32
tp1370
Rp1371
ag4
(I3168
I416
I32
I32
tp1372
Rp1373
ag4
(I64
I448
I32
I32
tp1374
Rp1375
ag4
(I96
I448
I32
I32
tp1376
Rp1377
ag4
(I128
I448
I32
I32
tp1378
Rp1379
ag4
(I512
I448
I32
I32
tp1380
Rp1381
ag4
(I896
I448
I32
I32
tp1382
Rp1383
ag4
(I1024
I448
I32
I32
tp1384
Rp1385
ag4
(I1056
I448
I32
I32
tp1386
Rp1387
ag4
(I1088
I448
I32
I32
tp1388
Rp1389
ag4
(I1280
I448
I32
I32
tp1390
Rp1391
ag4
(I1632
I448
I32
I32
tp1392
Rp1393
ag4
(I1664
I448
I32
I32
tp1394
Rp1395
ag4
(I2176
I448
I32
I32
tp1396
Rp1397
ag4
(I2208
I448
I32
I32
tp1398
Rp1399
ag4
(I2240
I448
I32
I32
tp1400
Rp1401
ag4
(I2976
I448
I32
I32
tp1402
Rp1403
ag4
(I3008
I448
I32
I32
tp1404
Rp1405
ag4
(I3040
I448
I32
I32
tp1406
Rp1407
ag4
(I3072
I448
I32
I32
tp1408
Rp1409
ag4
(I3104
I448
I32
I32
tp1410
Rp1411
ag4
(I3136
I448
I32
I32
tp1412
Rp1413
ag4
(I3168
I448
I32
I32
tp1414
Rp1415
ag4
(I128
I480
I32
I32
tp1416
Rp1417
ag4
(I160
I480
I32
I32
tp1418
Rp1419
ag4
(I192
I480
I32
I32
tp1420
Rp1421
ag4
(I512
I480
I32
I32
tp1422
Rp1423
ag4
(I896
I480
I32
I32
tp1424
Rp1425
ag4
(I1088
I480
I32
I32
tp1426
Rp1427
ag4
(I1120
I480
I32
I32
tp1428
Rp1429
ag4
(I1152
I480
I32
I32
tp1430
Rp1431
ag4
(I1280
I480
I32
I32
tp1432
Rp1433
ag4
(I1376
I480
I32
I32
tp1434
Rp1435
ag4
(I1408
I480
I32
I32
tp1436
Rp1437
ag4
(I1600
I480
I32
I32
tp1438
Rp1439
ag4
(I1632
I480
I32
I32
tp1440
Rp1441
ag4
(I1664
I480
I32
I32
tp1442
Rp1443
ag4
(I1696
I480
I32
I32
tp1444
Rp1445
ag4
(I2240
I480
I32
I32
tp1446
Rp1447
ag4
(I2272
I480
I32
I32
tp1448
Rp1449
ag4
(I2304
I480
I32
I32
tp1450
Rp1451
ag4
(I2976
I480
I32
I32
tp1452
Rp1453
ag4
(I0
I512
I32
I32
tp1454
Rp1455
ag4
(I32
I512
I32
I32
tp1456
Rp1457
ag4
(I64
I512
I32
I32
tp1458
Rp1459
ag4
(I96
I512
I32
I32
tp1460
Rp1461
ag4
(I128
I512
I32
I32
tp1462
Rp1463
ag4
(I160
I512
I32
I32
tp1464
Rp1465
ag4
(I192
I512
I32
I32
tp1466
Rp1467
ag4
(I224
I512
I32
I32
tp1468
Rp1469
ag4
(I256
I512
I32
I32
tp1470
Rp1471
ag4
(I288
I512
I32
I32
tp1472
Rp1473
ag4
(I320
I512
I32
I32
tp1474
Rp1475
ag4
(I352
I512
I32
I32
tp1476
Rp1477
ag4
(I384
I512
I32
I32
tp1478
Rp1479
ag4
(I512
I512
I32
I32
tp1480
Rp1481
ag4
(I544
I512
I32
I32
tp1482
Rp1483
ag4
(I576
I512
I32
I32
tp1484
Rp1485
ag4
(I608
I512
I32
I32
tp1486
Rp1487
ag4
(I640
I512
I32
I32
tp1488
Rp1489
ag4
(I672
I512
I32
I32
tp1490
Rp1491
ag4
(I704
I512
I32
I32
tp1492
Rp1493
ag4
(I736
I512
I32
I32
tp1494
Rp1495
ag4
(I768
I512
I32
I32
tp1496
Rp1497
ag4
(I800
I512
I32
I32
tp1498
Rp1499
ag4
(I832
I512
I32
I32
tp1500
Rp1501
ag4
(I864
I512
I32
I32
tp1502
Rp1503
ag4
(I896
I512
I32
I32
tp1504
Rp1505
ag4
(I928
I512
I32
I32
tp1506
Rp1507
ag4
(I960
I512
I32
I32
tp1508
Rp1509
ag4
(I992
I512
I32
I32
tp1510
Rp1511
ag4
(I1024
I512
I32
I32
tp1512
Rp1513
ag4
(I1056
I512
I32
I32
tp1514
Rp1515
ag4
(I1088
I512
I32
I32
tp1516
Rp1517
ag4
(I1120
I512
I32
I32
tp1518
Rp1519
ag4
(I1152
I512
I32
I32
tp1520
Rp1521
ag4
(I1184
I512
I32
I32
tp1522
Rp1523
ag4
(I1216
I512
I32
I32
tp1524
Rp1525
ag4
(I1248
I512
I32
I32
tp1526
Rp1527
ag4
(I1280
I512
I32
I32
tp1528
Rp1529
ag4
(I1344
I512
I32
I32
tp1530
Rp1531
ag4
(I1376
I512
I32
I32
tp1532
Rp1533
ag4
(I1408
I512
I32
I32
tp1534
Rp1535
ag4
(I1440
I512
I32
I32
tp1536
Rp1537
ag4
(I1696
I512
I32
I32
tp1538
Rp1539
ag4
(I1728
I512
I32
I32
tp1540
Rp1541
ag4
(I1760
I512
I32
I32
tp1542
Rp1543
ag4
(I1792
I512
I32
I32
tp1544
Rp1545
ag4
(I1824
I512
I32
I32
tp1546
Rp1547
ag4
(I1856
I512
I32
I32
tp1548
Rp1549
ag4
(I1888
I512
I32
I32
tp1550
Rp1551
ag4
(I1920
I512
I32
I32
tp1552
Rp1553
ag4
(I1952
I512
I32
I32
tp1554
Rp1555
ag4
(I1984
I512
I32
I32
tp1556
Rp1557
ag4
(I2016
I512
I32
I32
tp1558
Rp1559
ag4
(I2048
I512
I32
I32
tp1560
Rp1561
ag4
(I2080
I512
I32
I32
tp1562
Rp1563
ag4
(I2112
I512
I32
I32
tp1564
Rp1565
ag4
(I2240
I512
I32
I32
tp1566
Rp1567
ag4
(I2272
I512
I32
I32
tp1568
Rp1569
ag4
(I2304
I512
I32
I32
tp1570
Rp1571
ag4
(I2336
I512
I32
I32
tp1572
Rp1573
ag4
(I2368
I512
I32
I32
tp1574
Rp1575
ag4
(I2400
I512
I32
I32
tp1576
Rp1577
ag4
(I2432
I512
I32
I32
tp1578
Rp1579
ag4
(I2464
I512
I32
I32
tp1580
Rp1581
ag4
(I2496
I512
I32
I32
tp1582
Rp1583
ag4
(I2528
I512
I32
I32
tp1584
Rp1585
ag4
(I2560
I512
I32
I32
tp1586
Rp1587
ag4
(I2592
I512
I32
I32
tp1588
Rp1589
ag4
(I2624
I512
I32
I32
tp1590
Rp1591
ag4
(I2656
I512
I32
I32
tp1592
Rp1593
ag4
(I2688
I512
I32
I32
tp1594
Rp1595
ag4
(I2720
I512
I32
I32
tp1596
Rp1597
ag4
(I2752
I512
I32
I32
tp1598
Rp1599
ag4
(I2784
I512
I32
I32
tp1600
Rp1601
ag4
(I2816
I512
I32
I32
tp1602
Rp1603
ag4
(I2848
I512
I32
I32
tp1604
Rp1605
ag4
(I2880
I512
I32
I32
tp1606
Rp1607
ag4
(I2912
I512
I32
I32
tp1608
Rp1609
ag4
(I2944
I512
I32
I32
tp1610
Rp1611
ag4
(I2976
I512
I32
I32
tp1612
Rp1613
ag4
(I3008
I512
I32
I32
tp1614
Rp1615
ag4
(I3040
I512
I32
I32
tp1616
Rp1617
ag4
(I3072
I512
I32
I32
tp1618
Rp1619
ag4
(I3104
I512
I32
I32
tp1620
Rp1621
ag4
(I3136
I512
I32
I32
tp1622
Rp1623
ag4
(I3168
I512
I32
I32
tp1624
Rp1625
ag4
(I0
I544
I32
I32
tp1626
Rp1627
ag4
(I512
I544
I32
I32
tp1628
Rp1629
ag4
(I1280
I544
I32
I32
tp1630
Rp1631
ag4
(I1696
I544
I32
I32
tp1632
Rp1633
ag4
(I2528
I544
I32
I32
tp1634
Rp1635
ag4
(I3168
I544
I32
I32
tp1636
Rp1637
ag4
(I0
I576
I32
I32
tp1638
Rp1639
ag4
(I128
I576
I32
I32
tp1640
Rp1641
ag4
(I160
I576
I32
I32
tp1642
Rp1643
ag4
(I192
I576
I32
I32
tp1644
Rp1645
ag4
(I224
I576
I32
I32
tp1646
Rp1647
ag4
(I256
I576
I32
I32
tp1648
Rp1649
ag4
(I288
I576
I32
I32
tp1650
Rp1651
ag4
(I320
I576
I32
I32
tp1652
Rp1653
ag4
(I352
I576
I32
I32
tp1654
Rp1655
ag4
(I384
I576
I32
I32
tp1656
Rp1657
ag4
(I416
I576
I32
I32
tp1658
Rp1659
ag4
(I448
I576
I32
I32
tp1660
Rp1661
ag4
(I480
I576
I32
I32
tp1662
Rp1663
ag4
(I512
I576
I32
I32
tp1664
Rp1665
ag4
(I992
I576
I32
I32
tp1666
Rp1667
ag4
(I1024
I576
I32
I32
tp1668
Rp1669
ag4
(I1280
I576
I32
I32
tp1670
Rp1671
ag4
(I1568
I576
I32
I32
tp1672
Rp1673
ag4
(I1600
I576
I32
I32
tp1674
Rp1675
ag4
(I1696
I576
I32
I32
tp1676
Rp1677
ag4
(I2528
I576
I32
I32
tp1678
Rp1679
ag4
(I3168
I576
I32
I32
tp1680
Rp1681
ag4
(I0
I608
I32
I32
tp1682
Rp1683
ag4
(I1280
I608
I32
I32
tp1684
Rp1685
ag4
(I1536
I608
I32
I32
tp1686
Rp1687
ag4
(I1568
I608
I32
I32
tp1688
Rp1689
ag4
(I1600
I608
I32
I32
tp1690
Rp1691
ag4
(I1632
I608
I32
I32
tp1692
Rp1693
ag4
(I1696
I608
I32
I32
tp1694
Rp1695
ag4
(I2144
I608
I32
I32
tp1696
Rp1697
ag4
(I2176
I608
I32
I32
tp1698
Rp1699
ag4
(I2208
I608
I32
I32
tp1700
Rp1701
ag4
(I2528
I608
I32
I32
tp1702
Rp1703
ag4
(I3168
I608
I32
I32
tp1704
Rp1705
ag4
(I0
I640
I32
I32
tp1706
Rp1707
ag4
(I32
I640
I32
I32
tp1708
Rp1709
ag4
(I64
I640
I32
I32
tp1710
Rp1711
ag4
(I96
I640
I32
I32
tp1712
Rp1713
ag4
(I512
I640
I32
I32
tp1714
Rp1715
ag4
(I544
I640
I32
I32
tp1716
Rp1717
ag4
(I576
I640
I32
I32
tp1718
Rp1719
ag4
(I832
I640
I32
I32
tp1720
Rp1721
ag4
(I864
I640
I32
I32
tp1722
Rp1723
ag4
(I896
I640
I32
I32
tp1724
Rp1725
ag4
(I1280
I640
I32
I32
tp1726
Rp1727
ag4
(I1696
I640
I32
I32
tp1728
Rp1729
ag4
(I2144
I640
I32
I32
tp1730
Rp1731
ag4
(I2176
I640
I32
I32
tp1732
Rp1733
ag4
(I2208
I640
I32
I32
tp1734
Rp1735
ag4
(I2240
I640
I32
I32
tp1736
Rp1737
ag4
(I2272
I640
I32
I32
tp1738
Rp1739
ag4
(I2304
I640
I32
I32
tp1740
Rp1741
ag4
(I2336
I640
I32
I32
tp1742
Rp1743
ag4
(I2368
I640
I32
I32
tp1744
Rp1745
ag4
(I2400
I640
I32
I32
tp1746
Rp1747
ag4
(I2432
I640
I32
I32
tp1748
Rp1749
ag4
(I2464
I640
I32
I32
tp1750
Rp1751
ag4
(I2496
I640
I32
I32
tp1752
Rp1753
ag4
(I2528
I640
I32
I32
tp1754
Rp1755
ag4
(I2880
I640
I32
I32
tp1756
Rp1757
ag4
(I2912
I640
I32
I32
tp1758
Rp1759
ag4
(I3168
I640
I32
I32
tp1760
Rp1761
ag4
(I0
I672
I32
I32
tp1762
Rp1763
ag4
(I384
I672
I32
I32
tp1764
Rp1765
ag4
(I832
I672
I32
I32
tp1766
Rp1767
ag4
(I864
I672
I32
I32
tp1768
Rp1769
ag4
(I896
I672
I32
I32
tp1770
Rp1771
ag4
(I1088
I672
I32
I32
tp1772
Rp1773
ag4
(I1120
I672
I32
I32
tp1774
Rp1775
ag4
(I1280
I672
I32
I32
tp1776
Rp1777
ag4
(I1696
I672
I32
I32
tp1778
Rp1779
ag4
(I1952
I672
I32
I32
tp1780
Rp1781
ag4
(I1984
I672
I32
I32
tp1782
Rp1783
ag4
(I2016
I672
I32
I32
tp1784
Rp1785
ag4
(I2048
I672
I32
I32
tp1786
Rp1787
ag4
(I2208
I672
I32
I32
tp1788
Rp1789
ag4
(I2240
I672
I32
I32
tp1790
Rp1791
ag4
(I2368
I672
I32
I32
tp1792
Rp1793
ag4
(I2400
I672
I32
I32
tp1794
Rp1795
ag4
(I2432
I672
I32
I32
tp1796
Rp1797
ag4
(I2464
I672
I32
I32
tp1798
Rp1799
ag4
(I2816
I672
I32
I32
tp1800
Rp1801
ag4
(I2848
I672
I32
I32
tp1802
Rp1803
ag4
(I2880
I672
I32
I32
tp1804
Rp1805
ag4
(I2912
I672
I32
I32
tp1806
Rp1807
ag4
(I3104
I672
I32
I32
tp1808
Rp1809
ag4
(I3136
I672
I32
I32
tp1810
Rp1811
ag4
(I3168
I672
I32
I32
tp1812
Rp1813
ag4
(I0
I704
I32
I32
tp1814
Rp1815
ag4
(I224
I704
I32
I32
tp1816
Rp1817
ag4
(I256
I704
I32
I32
tp1818
Rp1819
ag4
(I288
I704
I32
I32
tp1820
Rp1821
ag4
(I1056
I704
I32
I32
tp1822
Rp1823
ag4
(I1088
I704
I32
I32
tp1824
Rp1825
ag4
(I1280
I704
I32
I32
tp1826
Rp1827
ag4
(I1440
I704
I32
I32
tp1828
Rp1829
ag4
(I1472
I704
I32
I32
tp1830
Rp1831
ag4
(I1696
I704
I32
I32
tp1832
Rp1833
ag4
(I2208
I704
I32
I32
tp1834
Rp1835
ag4
(I2240
I704
I32
I32
tp1836
Rp1837
ag4
(I2304
I704
I32
I32
tp1838
Rp1839
ag4
(I2368
I704
I32
I32
tp1840
Rp1841
ag4
(I2400
I704
I32
I32
tp1842
Rp1843
ag4
(I2432
I704
I32
I32
tp1844
Rp1845
ag4
(I2464
I704
I32
I32
tp1846
Rp1847
ag4
(I2752
I704
I32
I32
tp1848
Rp1849
ag4
(I2784
I704
I32
I32
tp1850
Rp1851
ag4
(I2816
I704
I32
I32
tp1852
Rp1853
ag4
(I2912
I704
I32
I32
tp1854
Rp1855
ag4
(I3168
I704
I32
I32
tp1856
Rp1857
ag4
(I0
I736
I32
I32
tp1858
Rp1859
ag4
(I768
I736
I32
I32
tp1860
Rp1861
ag4
(I800
I736
I32
I32
tp1862
Rp1863
ag4
(I1408
I736
I32
I32
tp1864
Rp1865
ag4
(I1440
I736
I32
I32
tp1866
Rp1867
ag4
(I1472
I736
I32
I32
tp1868
Rp1869
ag4
(I1504
I736
I32
I32
tp1870
Rp1871
ag4
(I1696
I736
I32
I32
tp1872
Rp1873
ag4
(I1792
I736
I32
I32
tp1874
Rp1875
ag4
(I1824
I736
I32
I32
tp1876
Rp1877
ag4
(I1856
I736
I32
I32
tp1878
Rp1879
ag4
(I1888
I736
I32
I32
tp1880
Rp1881
ag4
(I2208
I736
I32
I32
tp1882
Rp1883
ag4
(I2240
I736
I32
I32
tp1884
Rp1885
ag4
(I2304
I736
I32
I32
tp1886
Rp1887
ag4
(I2432
I736
I32
I32
tp1888
Rp1889
ag4
(I2464
I736
I32
I32
tp1890
Rp1891
ag4
(I2688
I736
I32
I32
tp1892
Rp1893
ag4
(I2720
I736
I32
I32
tp1894
Rp1895
ag4
(I2752
I736
I32
I32
tp1896
Rp1897
ag4
(I2912
I736
I32
I32
tp1898
Rp1899
ag4
(I3168
I736
I32
I32
tp1900
Rp1901
ag4
(I0
I768
I32
I32
tp1902
Rp1903
ag4
(I64
I768
I32
I32
tp1904
Rp1905
ag4
(I96
I768
I32
I32
tp1906
Rp1907
ag4
(I128
I768
I32
I32
tp1908
Rp1909
ag4
(I384
I768
I32
I32
tp1910
Rp1911
ag4
(I416
I768
I32
I32
tp1912
Rp1913
ag4
(I448
I768
I32
I32
tp1914
Rp1915
ag4
(I992
I768
I32
I32
tp1916
Rp1917
ag4
(I1024
I768
I32
I32
tp1918
Rp1919
ag4
(I1056
I768
I32
I32
tp1920
Rp1921
ag4
(I1088
I768
I32
I32
tp1922
Rp1923
ag4
(I1696
I768
I32
I32
tp1924
Rp1925
ag4
(I2208
I768
I32
I32
tp1926
Rp1927
ag4
(I2304
I768
I32
I32
tp1928
Rp1929
ag4
(I2336
I768
I32
I32
tp1930
Rp1931
ag4
(I2368
I768
I32
I32
tp1932
Rp1933
ag4
(I2624
I768
I32
I32
tp1934
Rp1935
ag4
(I2656
I768
I32
I32
tp1936
Rp1937
ag4
(I2688
I768
I32
I32
tp1938
Rp1939
ag4
(I2912
I768
I32
I32
tp1940
Rp1941
ag4
(I2944
I768
I32
I32
tp1942
Rp1943
ag4
(I2976
I768
I32
I32
tp1944
Rp1945
ag4
(I3168
I768
I32
I32
tp1946
Rp1947
ag4
(I0
I800
I32
I32
tp1948
Rp1949
ag4
(I64
I800
I32
I32
tp1950
Rp1951
ag4
(I96
I800
I32
I32
tp1952
Rp1953
ag4
(I128
I800
I32
I32
tp1954
Rp1955
ag4
(I160
I800
I32
I32
tp1956
Rp1957
ag4
(I704
I800
I32
I32
tp1958
Rp1959
ag4
(I1088
I800
I32
I32
tp1960
Rp1961
ag4
(I1696
I800
I32
I32
tp1962
Rp1963
ag4
(I2272
I800
I32
I32
tp1964
Rp1965
ag4
(I2304
I800
I32
I32
tp1966
Rp1967
ag4
(I2368
I800
I32
I32
tp1968
Rp1969
ag4
(I2400
I800
I32
I32
tp1970
Rp1971
ag4
(I2432
I800
I32
I32
tp1972
Rp1973
ag4
(I2464
I800
I32
I32
tp1974
Rp1975
ag4
(I2560
I800
I32
I32
tp1976
Rp1977
ag4
(I2592
I800
I32
I32
tp1978
Rp1979
ag4
(I2624
I800
I32
I32
tp1980
Rp1981
ag4
(I2912
I800
I32
I32
tp1982
Rp1983
ag4
(I3168
I800
I32
I32
tp1984
Rp1985
ag4
(I0
I832
I32
I32
tp1986
Rp1987
ag4
(I544
I832
I32
I32
tp1988
Rp1989
ag4
(I576
I832
I32
I32
tp1990
Rp1991
ag4
(I608
I832
I32
I32
tp1992
Rp1993
ag4
(I640
I832
I32
I32
tp1994
Rp1995
ag4
(I1280
I832
I32
I32
tp1996
Rp1997
ag4
(I1312
I832
I32
I32
tp1998
Rp1999
ag4
(I1344
I832
I32
I32
tp2000
Rp2001
ag4
(I1376
I832
I32
I32
tp2002
Rp2003
ag4
(I1408
I832
I32
I32
tp2004
Rp2005
ag4
(I1440
I832
I32
I32
tp2006
Rp2007
ag4
(I1472
I832
I32
I32
tp2008
Rp2009
ag4
(I1504
I832
I32
I32
tp2010
Rp2011
ag4
(I1536
I832
I32
I32
tp2012
Rp2013
ag4
(I1568
I832
I32
I32
tp2014
Rp2015
ag4
(I1600
I832
I32
I32
tp2016
Rp2017
ag4
(I1632
I832
I32
I32
tp2018
Rp2019
ag4
(I1664
I832
I32
I32
tp2020
Rp2021
ag4
(I1696
I832
I32
I32
tp2022
Rp2023
ag4
(I1728
I832
I32
I32
tp2024
Rp2025
ag4
(I1760
I832
I32
I32
tp2026
Rp2027
ag4
(I1792
I832
I32
I32
tp2028
Rp2029
ag4
(I1824
I832
I32
I32
tp2030
Rp2031
ag4
(I1856
I832
I32
I32
tp2032
Rp2033
ag4
(I1888
I832
I32
I32
tp2034
Rp2035
ag4
(I1920
I832
I32
I32
tp2036
Rp2037
ag4
(I1952
I832
I32
I32
tp2038
Rp2039
ag4
(I1984
I832
I32
I32
tp2040
Rp2041
ag4
(I2016
I832
I32
I32
tp2042
Rp2043
ag4
(I2048
I832
I32
I32
tp2044
Rp2045
ag4
(I2080
I832
I32
I32
tp2046
Rp2047
ag4
(I2112
I832
I32
I32
tp2048
Rp2049
ag4
(I2144
I832
I32
I32
tp2050
Rp2051
ag4
(I2176
I832
I32
I32
tp2052
Rp2053
ag4
(I2208
I832
I32
I32
tp2054
Rp2055
ag4
(I2240
I832
I32
I32
tp2056
Rp2057
ag4
(I2272
I832
I32
I32
tp2058
Rp2059
ag4
(I2304
I832
I32
I32
tp2060
Rp2061
ag4
(I2336
I832
I32
I32
tp2062
Rp2063
ag4
(I2368
I832
I32
I32
tp2064
Rp2065
ag4
(I2400
I832
I32
I32
tp2066
Rp2067
ag4
(I2432
I832
I32
I32
tp2068
Rp2069
ag4
(I2464
I832
I32
I32
tp2070
Rp2071
ag4
(I2496
I832
I32
I32
tp2072
Rp2073
ag4
(I2528
I832
I32
I32
tp2074
Rp2075
ag4
(I2560
I832
I32
I32
tp2076
Rp2077
ag4
(I2592
I832
I32
I32
tp2078
Rp2079
ag4
(I2624
I832
I32
I32
tp2080
Rp2081
ag4
(I2656
I832
I32
I32
tp2082
Rp2083
ag4
(I2688
I832
I32
I32
tp2084
Rp2085
ag4
(I2720
I832
I32
I32
tp2086
Rp2087
ag4
(I2752
I832
I32
I32
tp2088
Rp2089
ag4
(I2784
I832
I32
I32
tp2090
Rp2091
ag4
(I2816
I832
I32
I32
tp2092
Rp2093
ag4
(I2848
I832
I32
I32
tp2094
Rp2095
ag4
(I2880
I832
I32
I32
tp2096
Rp2097
ag4
(I2912
I832
I32
I32
tp2098
Rp2099
ag4
(I3104
I832
I32
I32
tp2100
Rp2101
ag4
(I3136
I832
I32
I32
tp2102
Rp2103
ag4
(I3168
I832
I32
I32
tp2104
Rp2105
ag4
(I0
I864
I32
I32
tp2106
Rp2107
ag4
(I544
I864
I32
I32
tp2108
Rp2109
ag4
(I576
I864
I32
I32
tp2110
Rp2111
ag4
(I608
I864
I32
I32
tp2112
Rp2113
ag4
(I640
I864
I32
I32
tp2114
Rp2115
ag4
(I1280
I864
I32
I32
tp2116
Rp2117
ag4
(I2912
I864
I32
I32
tp2118
Rp2119
ag4
(I3168
I864
I32
I32
tp2120
Rp2121
ag4
(I0
I896
I32
I32
tp2122
Rp2123
ag4
(I32
I896
I32
I32
tp2124
Rp2125
ag4
(I64
I896
I32
I32
tp2126
Rp2127
ag4
(I96
I896
I32
I32
tp2128
Rp2129
ag4
(I128
I896
I32
I32
tp2130
Rp2131
ag4
(I160
I896
I32
I32
tp2132
Rp2133
ag4
(I192
I896
I32
I32
tp2134
Rp2135
ag4
(I224
I896
I32
I32
tp2136
Rp2137
ag4
(I256
I896
I32
I32
tp2138
Rp2139
ag4
(I288
I896
I32
I32
tp2140
Rp2141
ag4
(I320
I896
I32
I32
tp2142
Rp2143
ag4
(I352
I896
I32
I32
tp2144
Rp2145
ag4
(I384
I896
I32
I32
tp2146
Rp2147
ag4
(I416
I896
I32
I32
tp2148
Rp2149
ag4
(I448
I896
I32
I32
tp2150
Rp2151
ag4
(I480
I896
I32
I32
tp2152
Rp2153
ag4
(I512
I896
I32
I32
tp2154
Rp2155
ag4
(I544
I896
I32
I32
tp2156
Rp2157
ag4
(I576
I896
I32
I32
tp2158
Rp2159
ag4
(I608
I896
I32
I32
tp2160
Rp2161
ag4
(I640
I896
I32
I32
tp2162
Rp2163
ag4
(I672
I896
I32
I32
tp2164
Rp2165
ag4
(I704
I896
I32
I32
tp2166
Rp2167
ag4
(I736
I896
I32
I32
tp2168
Rp2169
ag4
(I768
I896
I32
I32
tp2170
Rp2171
ag4
(I800
I896
I32
I32
tp2172
Rp2173
ag4
(I832
I896
I32
I32
tp2174
Rp2175
ag4
(I864
I896
I32
I32
tp2176
Rp2177
ag4
(I896
I896
I32
I32
tp2178
Rp2179
ag4
(I928
I896
I32
I32
tp2180
Rp2181
ag4
(I960
I896
I32
I32
tp2182
Rp2183
ag4
(I992
I896
I32
I32
tp2184
Rp2185
ag4
(I1024
I896
I32
I32
tp2186
Rp2187
ag4
(I1056
I896
I32
I32
tp2188
Rp2189
ag4
(I1088
I896
I32
I32
tp2190
Rp2191
ag4
(I1120
I896
I32
I32
tp2192
Rp2193
ag4
(I1152
I896
I32
I32
tp2194
Rp2195
ag4
(I1184
I896
I32
I32
tp2196
Rp2197
ag4
(I1216
I896
I32
I32
tp2198
Rp2199
ag4
(I1248
I896
I32
I32
tp2200
Rp2201
ag4
(I1280
I896
I32
I32
tp2202
Rp2203
ag4
(I2912
I896
I32
I32
tp2204
Rp2205
ag4
(I3168
I896
I32
I32
tp2206
Rp2207
ag4
(I0
I928
I32
I32
tp2208
Rp2209
ag4
(I2912
I928
I32
I32
tp2210
Rp2211
ag4
(I2944
I928
I32
I32
tp2212
Rp2213
ag4
(I2976
I928
I32
I32
tp2214
Rp2215
ag4
(I3168
I928
I32
I32
tp2216
Rp2217
ag4
(I0
I960
I32
I32
tp2218
Rp2219
ag4
(I3168
I960
I32
I32
tp2220
Rp2221
ag4
(I0
I992
I32
I32
tp2222
Rp2223
ag4
(I3168
I992
I32
I32
tp2224
Rp2225
ag4
(I0
I1024
I32
I32
tp2226
Rp2227
ag4
(I1280
I1024
I32
I32
tp2228
Rp2229
ag4
(I1344
I1024
I32
I32
tp2230
Rp2231
ag4
(I1376
I1024
I32
I32
tp2232
Rp2233
ag4
(I1408
I1024
I32
I32
tp2234
Rp2235
ag4
(I1440
I1024
I32
I32
tp2236
Rp2237
ag4
(I1472
I1024
I32
I32
tp2238
Rp2239
ag4
(I1504
I1024
I32
I32
tp2240
Rp2241
ag4
(I1536
I1024
I32
I32
tp2242
Rp2243
ag4
(I1568
I1024
I32
I32
tp2244
Rp2245
ag4
(I1600
I1024
I32
I32
tp2246
Rp2247
ag4
(I1632
I1024
I32
I32
tp2248
Rp2249
ag4
(I1664
I1024
I32
I32
tp2250
Rp2251
ag4
(I1696
I1024
I32
I32
tp2252
Rp2253
ag4
(I1728
I1024
I32
I32
tp2254
Rp2255
ag4
(I1760
I1024
I32
I32
tp2256
Rp2257
ag4
(I1792
I1024
I32
I32
tp2258
Rp2259
ag4
(I1824
I1024
I32
I32
tp2260
Rp2261
ag4
(I1856
I1024
I32
I32
tp2262
Rp2263
ag4
(I1888
I1024
I32
I32
tp2264
Rp2265
ag4
(I1920
I1024
I32
I32
tp2266
Rp2267
ag4
(I1984
I1024
I32
I32
tp2268
Rp2269
ag4
(I2016
I1024
I32
I32
tp2270
Rp2271
ag4
(I2048
I1024
I32
I32
tp2272
Rp2273
ag4
(I2080
I1024
I32
I32
tp2274
Rp2275
ag4
(I2112
I1024
I32
I32
tp2276
Rp2277
ag4
(I2144
I1024
I32
I32
tp2278
Rp2279
ag4
(I2176
I1024
I32
I32
tp2280
Rp2281
ag4
(I2208
I1024
I32
I32
tp2282
Rp2283
ag4
(I2240
I1024
I32
I32
tp2284
Rp2285
ag4
(I2272
I1024
I32
I32
tp2286
Rp2287
ag4
(I2304
I1024
I32
I32
tp2288
Rp2289
ag4
(I2336
I1024
I32
I32
tp2290
Rp2291
ag4
(I2368
I1024
I32
I32
tp2292
Rp2293
ag4
(I2400
I1024
I32
I32
tp2294
Rp2295
ag4
(I2432
I1024
I32
I32
tp2296
Rp2297
ag4
(I2464
I1024
I32
I32
tp2298
Rp2299
ag4
(I2496
I1024
I32
I32
tp2300
Rp2301
ag4
(I2560
I1024
I32
I32
tp2302
Rp2303
ag4
(I2592
I1024
I32
I32
tp2304
Rp2305
ag4
(I2624
I1024
I32
I32
tp2306
Rp2307
ag4
(I2656
I1024
I32
I32
tp2308
Rp2309
ag4
(I2688
I1024
I32
I32
tp2310
Rp2311
ag4
(I2720
I1024
I32
I32
tp2312
Rp2313
ag4
(I2752
I1024
I32
I32
tp2314
Rp2315
ag4
(I2784
I1024
I32
I32
tp2316
Rp2317
ag4
(I2816
I1024
I32
I32
tp2318
Rp2319
ag4
(I2848
I1024
I32
I32
tp2320
Rp2321
ag4
(I2880
I1024
I32
I32
tp2322
Rp2323
ag4
(I2912
I1024
I32
I32
tp2324
Rp2325
ag4
(I2944
I1024
I32
I32
tp2326
Rp2327
ag4
(I2976
I1024
I32
I32
tp2328
Rp2329
ag4
(I3008
I1024
I32
I32
tp2330
Rp2331
ag4
(I3040
I1024
I32
I32
tp2332
Rp2333
ag4
(I3072
I1024
I32
I32
tp2334
Rp2335
ag4
(I3104
I1024
I32
I32
tp2336
Rp2337
ag4
(I3136
I1024
I32
I32
tp2338
Rp2339
ag4
(I3168
I1024
I32
I32
tp2340
Rp2341
ag4
(I0
I1056
I32
I32
tp2342
Rp2343
ag4
(I576
I1056
I32
I32
tp2344
Rp2345
ag4
(I1120
I1056
I32
I32
tp2346
Rp2347
ag4
(I1280
I1056
I32
I32
tp2348
Rp2349
ag4
(I1344
I1056
I32
I32
tp2350
Rp2351
ag4
(I1920
I1056
I32
I32
tp2352
Rp2353
ag4
(I1984
I1056
I32
I32
tp2354
Rp2355
ag4
(I2496
I1056
I32
I32
tp2356
Rp2357
ag4
(I2560
I1056
I32
I32
tp2358
Rp2359
ag4
(I0
I1088
I32
I32
tp2360
Rp2361
ag4
(I544
I1088
I32
I32
tp2362
Rp2363
ag4
(I576
I1088
I32
I32
tp2364
Rp2365
ag4
(I608
I1088
I32
I32
tp2366
Rp2367
ag4
(I1088
I1088
I32
I32
tp2368
Rp2369
ag4
(I1120
I1088
I32
I32
tp2370
Rp2371
ag4
(I1152
I1088
I32
I32
tp2372
Rp2373
ag4
(I1280
I1088
I32
I32
tp2374
Rp2375
ag4
(I1312
I1088
I32
I32
tp2376
Rp2377
ag4
(I1344
I1088
I32
I32
tp2378
Rp2379
ag4
(I1376
I1088
I32
I32
tp2380
Rp2381
ag4
(I1408
I1088
I32
I32
tp2382
Rp2383
ag4
(I1440
I1088
I32
I32
tp2384
Rp2385
ag4
(I1472
I1088
I32
I32
tp2386
Rp2387
ag4
(I1504
I1088
I32
I32
tp2388
Rp2389
ag4
(I1536
I1088
I32
I32
tp2390
Rp2391
ag4
(I1568
I1088
I32
I32
tp2392
Rp2393
ag4
(I1600
I1088
I32
I32
tp2394
Rp2395
ag4
(I1632
I1088
I32
I32
tp2396
Rp2397
ag4
(I1664
I1088
I32
I32
tp2398
Rp2399
ag4
(I1696
I1088
I32
I32
tp2400
Rp2401
ag4
(I1728
I1088
I32
I32
tp2402
Rp2403
ag4
(I1760
I1088
I32
I32
tp2404
Rp2405
ag4
(I1792
I1088
I32
I32
tp2406
Rp2407
ag4
(I1824
I1088
I32
I32
tp2408
Rp2409
ag4
(I1856
I1088
I32
I32
tp2410
Rp2411
ag4
(I1888
I1088
I32
I32
tp2412
Rp2413
ag4
(I1920
I1088
I32
I32
tp2414
Rp2415
ag4
(I1952
I1088
I32
I32
tp2416
Rp2417
ag4
(I1984
I1088
I32
I32
tp2418
Rp2419
ag4
(I2016
I1088
I32
I32
tp2420
Rp2421
ag4
(I2048
I1088
I32
I32
tp2422
Rp2423
ag4
(I2080
I1088
I32
I32
tp2424
Rp2425
ag4
(I2112
I1088
I32
I32
tp2426
Rp2427
ag4
(I2144
I1088
I32
I32
tp2428
Rp2429
ag4
(I2176
I1088
I32
I32
tp2430
Rp2431
ag4
(I2208
I1088
I32
I32
tp2432
Rp2433
ag4
(I2240
I1088
I32
I32
tp2434
Rp2435
ag4
(I2272
I1088
I32
I32
tp2436
Rp2437
ag4
(I2304
I1088
I32
I32
tp2438
Rp2439
ag4
(I2336
I1088
I32
I32
tp2440
Rp2441
ag4
(I2368
I1088
I32
I32
tp2442
Rp2443
ag4
(I2400
I1088
I32
I32
tp2444
Rp2445
ag4
(I2432
I1088
I32
I32
tp2446
Rp2447
ag4
(I2464
I1088
I32
I32
tp2448
Rp2449
ag4
(I2496
I1088
I32
I32
tp2450
Rp2451
ag4
(I2528
I1088
I32
I32
tp2452
Rp2453
ag4
(I2560
I1088
I32
I32
tp2454
Rp2455
ag4
(I2592
I1088
I32
I32
tp2456
Rp2457
ag4
(I2624
I1088
I32
I32
tp2458
Rp2459
ag4
(I2656
I1088
I32
I32
tp2460
Rp2461
ag4
(I2688
I1088
I32
I32
tp2462
Rp2463
ag4
(I2720
I1088
I32
I32
tp2464
Rp2465
ag4
(I2752
I1088
I32
I32
tp2466
Rp2467
ag4
(I2784
I1088
I32
I32
tp2468
Rp2469
ag4
(I2816
I1088
I32
I32
tp2470
Rp2471
ag4
(I2848
I1088
I32
I32
tp2472
Rp2473
ag4
(I2880
I1088
I32
I32
tp2474
Rp2475
ag4
(I2912
I1088
I32
I32
tp2476
Rp2477
ag4
(I2944
I1088
I32
I32
tp2478
Rp2479
ag4
(I2976
I1088
I32
I32
tp2480
Rp2481
ag4
(I3008
I1088
I32
I32
tp2482
Rp2483
ag4
(I3040
I1088
I32
I32
tp2484
Rp2485
ag4
(I3072
I1088
I32
I32
tp2486
Rp2487
ag4
(I3104
I1088
I32
I32
tp2488
Rp2489
ag4
(I3136
I1088
I32
I32
tp2490
Rp2491
ag4
(I3168
I1088
I32
I32
tp2492
Rp2493
ag4
(I0
I1120
I32
I32
tp2494
Rp2495
ag4
(I352
I1120
I32
I32
tp2496
Rp2497
ag4
(I384
I1120
I32
I32
tp2498
Rp2499
ag4
(I416
I1120
I32
I32
tp2500
Rp2501
ag4
(I768
I1120
I32
I32
tp2502
Rp2503
ag4
(I1280
I1120
I32
I32
tp2504
Rp2505
ag4
(I3168
I1120
I32
I32
tp2506
Rp2507
ag4
(I0
I1152
I32
I32
tp2508
Rp2509
ag4
(I384
I1152
I32
I32
tp2510
Rp2511
ag4
(I736
I1152
I32
I32
tp2512
Rp2513
ag4
(I768
I1152
I32
I32
tp2514
Rp2515
ag4
(I800
I1152
I32
I32
tp2516
Rp2517
ag4
(I960
I1152
I32
I32
tp2518
Rp2519
ag4
(I1280
I1152
I32
I32
tp2520
Rp2521
ag4
(I2560
I1152
I32
I32
tp2522
Rp2523
ag4
(I2592
I1152
I32
I32
tp2524
Rp2525
ag4
(I2624
I1152
I32
I32
tp2526
Rp2527
ag4
(I2656
I1152
I32
I32
tp2528
Rp2529
ag4
(I2688
I1152
I32
I32
tp2530
Rp2531
ag4
(I3168
I1152
I32
I32
tp2532
Rp2533
ag4
(I0
I1184
I32
I32
tp2534
Rp2535
ag4
(I224
I1184
I32
I32
tp2536
Rp2537
ag4
(I928
I1184
I32
I32
tp2538
Rp2539
ag4
(I960
I1184
I32
I32
tp2540
Rp2541
ag4
(I992
I1184
I32
I32
tp2542
Rp2543
ag4
(I1280
I1184
I32
I32
tp2544
Rp2545
ag4
(I2464
I1184
I32
I32
tp2546
Rp2547
ag4
(I2496
I1184
I32
I32
tp2548
Rp2549
ag4
(I2528
I1184
I32
I32
tp2550
Rp2551
ag4
(I2560
I1184
I32
I32
tp2552
Rp2553
ag4
(I2688
I1184
I32
I32
tp2554
Rp2555
ag4
(I2752
I1184
I32
I32
tp2556
Rp2557
ag4
(I2784
I1184
I32
I32
tp2558
Rp2559
ag4
(I3168
I1184
I32
I32
tp2560
Rp2561
ag4
(I0
I1216
I32
I32
tp2562
Rp2563
ag4
(I192
I1216
I32
I32
tp2564
Rp2565
ag4
(I224
I1216
I32
I32
tp2566
Rp2567
ag4
(I256
I1216
I32
I32
tp2568
Rp2569
ag4
(I1280
I1216
I32
I32
tp2570
Rp2571
ag4
(I2368
I1216
I32
I32
tp2572
Rp2573
ag4
(I2400
I1216
I32
I32
tp2574
Rp2575
ag4
(I2432
I1216
I32
I32
tp2576
Rp2577
ag4
(I2464
I1216
I32
I32
tp2578
Rp2579
ag4
(I2688
I1216
I32
I32
tp2580
Rp2581
ag4
(I2752
I1216
I32
I32
tp2582
Rp2583
ag4
(I2784
I1216
I32
I32
tp2584
Rp2585
ag4
(I3168
I1216
I32
I32
tp2586
Rp2587
ag4
(I0
I1248
I32
I32
tp2588
Rp2589
ag4
(I64
I1248
I32
I32
tp2590
Rp2591
ag4
(I1280
I1248
I32
I32
tp2592
Rp2593
ag4
(I2272
I1248
I32
I32
tp2594
Rp2595
ag4
(I2304
I1248
I32
I32
tp2596
Rp2597
ag4
(I2336
I1248
I32
I32
tp2598
Rp2599
ag4
(I2368
I1248
I32
I32
tp2600
Rp2601
ag4
(I2688
I1248
I32
I32
tp2602
Rp2603
ag4
(I2880
I1248
I32
I32
tp2604
Rp2605
ag4
(I2912
I1248
I32
I32
tp2606
Rp2607
ag4
(I3168
I1248
I32
I32
tp2608
Rp2609
ag4
(I0
I1280
I32
I32
tp2610
Rp2611
ag4
(I32
I1280
I32
I32
tp2612
Rp2613
ag4
(I64
I1280
I32
I32
tp2614
Rp2615
ag4
(I96
I1280
I32
I32
tp2616
Rp2617
ag4
(I1280
I1280
I32
I32
tp2618
Rp2619
ag4
(I2176
I1280
I32
I32
tp2620
Rp2621
ag4
(I2208
I1280
I32
I32
tp2622
Rp2623
ag4
(I2240
I1280
I32
I32
tp2624
Rp2625
ag4
(I2272
I1280
I32
I32
tp2626
Rp2627
ag4
(I2688
I1280
I32
I32
tp2628
Rp2629
ag4
(I2880
I1280
I32
I32
tp2630
Rp2631
ag4
(I2912
I1280
I32
I32
tp2632
Rp2633
ag4
(I3008
I1280
I32
I32
tp2634
Rp2635
ag4
(I3040
I1280
I32
I32
tp2636
Rp2637
ag4
(I3168
I1280
I32
I32
tp2638
Rp2639
ag4
(I0
I1312
I32
I32
tp2640
Rp2641
ag4
(I1280
I1312
I32
I32
tp2642
Rp2643
ag4
(I2080
I1312
I32
I32
tp2644
Rp2645
ag4
(I2112
I1312
I32
I32
tp2646
Rp2647
ag4
(I2144
I1312
I32
I32
tp2648
Rp2649
ag4
(I2176
I1312
I32
I32
tp2650
Rp2651
ag4
(I2688
I1312
I32
I32
tp2652
Rp2653
ag4
(I3008
I1312
I32
I32
tp2654
Rp2655
ag4
(I3040
I1312
I32
I32
tp2656
Rp2657
ag4
(I3168
I1312
I32
I32
tp2658
Rp2659
ag4
(I0
I1344
I32
I32
tp2660
Rp2661
ag4
(I224
I1344
I32
I32
tp2662
Rp2663
ag4
(I256
I1344
I32
I32
tp2664
Rp2665
ag4
(I288
I1344
I32
I32
tp2666
Rp2667
ag4
(I1280
I1344
I32
I32
tp2668
Rp2669
ag4
(I1984
I1344
I32
I32
tp2670
Rp2671
ag4
(I2016
I1344
I32
I32
tp2672
Rp2673
ag4
(I2048
I1344
I32
I32
tp2674
Rp2675
ag4
(I2080
I1344
I32
I32
tp2676
Rp2677
ag4
(I2688
I1344
I32
I32
tp2678
Rp2679
ag4
(I3168
I1344
I32
I32
tp2680
Rp2681
ag4
(I0
I1376
I32
I32
tp2682
Rp2683
ag4
(I256
I1376
I32
I32
tp2684
Rp2685
ag4
(I448
I1376
I32
I32
tp2686
Rp2687
ag4
(I1280
I1376
I32
I32
tp2688
Rp2689
ag4
(I1888
I1376
I32
I32
tp2690
Rp2691
ag4
(I1920
I1376
I32
I32
tp2692
Rp2693
ag4
(I1952
I1376
I32
I32
tp2694
Rp2695
ag4
(I1984
I1376
I32
I32
tp2696
Rp2697
ag4
(I2688
I1376
I32
I32
tp2698
Rp2699
ag4
(I2912
I1376
I32
I32
tp2700
Rp2701
ag4
(I2944
I1376
I32
I32
tp2702
Rp2703
ag4
(I3168
I1376
I32
I32
tp2704
Rp2705
ag4
(I0
I1408
I32
I32
tp2706
Rp2707
ag4
(I416
I1408
I32
I32
tp2708
Rp2709
ag4
(I448
I1408
I32
I32
tp2710
Rp2711
ag4
(I480
I1408
I32
I32
tp2712
Rp2713
ag4
(I800
I1408
I32
I32
tp2714
Rp2715
ag4
(I832
I1408
I32
I32
tp2716
Rp2717
ag4
(I864
I1408
I32
I32
tp2718
Rp2719
ag4
(I896
I1408
I32
I32
tp2720
Rp2721
ag4
(I928
I1408
I32
I32
tp2722
Rp2723
ag4
(I960
I1408
I32
I32
tp2724
Rp2725
ag4
(I992
I1408
I32
I32
tp2726
Rp2727
ag4
(I1024
I1408
I32
I32
tp2728
Rp2729
ag4
(I1056
I1408
I32
I32
tp2730
Rp2731
ag4
(I1088
I1408
I32
I32
tp2732
Rp2733
ag4
(I1120
I1408
I32
I32
tp2734
Rp2735
ag4
(I1152
I1408
I32
I32
tp2736
Rp2737
ag4
(I1184
I1408
I32
I32
tp2738
Rp2739
ag4
(I1216
I1408
I32
I32
tp2740
Rp2741
ag4
(I1248
I1408
I32
I32
tp2742
Rp2743
ag4
(I1280
I1408
I32
I32
tp2744
Rp2745
ag4
(I1792
I1408
I32
I32
tp2746
Rp2747
ag4
(I1824
I1408
I32
I32
tp2748
Rp2749
ag4
(I1856
I1408
I32
I32
tp2750
Rp2751
ag4
(I1888
I1408
I32
I32
tp2752
Rp2753
ag4
(I2688
I1408
I32
I32
tp2754
Rp2755
ag4
(I2912
I1408
I32
I32
tp2756
Rp2757
ag4
(I2944
I1408
I32
I32
tp2758
Rp2759
ag4
(I3168
I1408
I32
I32
tp2760
Rp2761
ag4
(I0
I1440
I32
I32
tp2762
Rp2763
ag4
(I640
I1440
I32
I32
tp2764
Rp2765
ag4
(I1696
I1440
I32
I32
tp2766
Rp2767
ag4
(I1728
I1440
I32
I32
tp2768
Rp2769
ag4
(I1760
I1440
I32
I32
tp2770
Rp2771
ag4
(I1792
I1440
I32
I32
tp2772
Rp2773
ag4
(I2688
I1440
I32
I32
tp2774
Rp2775
ag4
(I2784
I1440
I32
I32
tp2776
Rp2777
ag4
(I2816
I1440
I32
I32
tp2778
Rp2779
ag4
(I3168
I1440
I32
I32
tp2780
Rp2781
ag4
(I0
I1472
I32
I32
tp2782
Rp2783
ag4
(I608
I1472
I32
I32
tp2784
Rp2785
ag4
(I640
I1472
I32
I32
tp2786
Rp2787
ag4
(I672
I1472
I32
I32
tp2788
Rp2789
ag4
(I800
I1472
I32
I32
tp2790
Rp2791
ag4
(I1600
I1472
I32
I32
tp2792
Rp2793
ag4
(I1632
I1472
I32
I32
tp2794
Rp2795
ag4
(I1664
I1472
I32
I32
tp2796
Rp2797
ag4
(I1696
I1472
I32
I32
tp2798
Rp2799
ag4
(I2688
I1472
I32
I32
tp2800
Rp2801
ag4
(I2784
I1472
I32
I32
tp2802
Rp2803
ag4
(I2816
I1472
I32
I32
tp2804
Rp2805
ag4
(I3168
I1472
I32
I32
tp2806
Rp2807
ag4
(I0
I1504
I32
I32
tp2808
Rp2809
ag4
(I768
I1504
I32
I32
tp2810
Rp2811
ag4
(I800
I1504
I32
I32
tp2812
Rp2813
ag4
(I832
I1504
I32
I32
tp2814
Rp2815
ag4
(I1504
I1504
I32
I32
tp2816
Rp2817
ag4
(I1536
I1504
I32
I32
tp2818
Rp2819
ag4
(I1568
I1504
I32
I32
tp2820
Rp2821
ag4
(I1600
I1504
I32
I32
tp2822
Rp2823
ag4
(I2688
I1504
I32
I32
tp2824
Rp2825
ag4
(I3168
I1504
I32
I32
tp2826
Rp2827
ag4
(I0
I1536
I32
I32
tp2828
Rp2829
ag4
(I768
I1536
I32
I32
tp2830
Rp2831
ag4
(I800
I1536
I32
I32
tp2832
Rp2833
ag4
(I832
I1536
I32
I32
tp2834
Rp2835
ag4
(I1408
I1536
I32
I32
tp2836
Rp2837
ag4
(I1440
I1536
I32
I32
tp2838
Rp2839
ag4
(I1472
I1536
I32
I32
tp2840
Rp2841
ag4
(I1504
I1536
I32
I32
tp2842
Rp2843
ag4
(I2688
I1536
I32
I32
tp2844
Rp2845
ag4
(I2912
I1536
I32
I32
tp2846
Rp2847
ag4
(I2944
I1536
I32
I32
tp2848
Rp2849
ag4
(I3168
I1536
I32
I32
tp2850
Rp2851
ag4
(I0
I1568
I32
I32
tp2852
Rp2853
ag4
(I32
I1568
I32
I32
tp2854
Rp2855
ag4
(I64
I1568
I32
I32
tp2856
Rp2857
ag4
(I96
I1568
I32
I32
tp2858
Rp2859
ag4
(I128
I1568
I32
I32
tp2860
Rp2861
ag4
(I160
I1568
I32
I32
tp2862
Rp2863
ag4
(I192
I1568
I32
I32
tp2864
Rp2865
ag4
(I224
I1568
I32
I32
tp2866
Rp2867
ag4
(I256
I1568
I32
I32
tp2868
Rp2869
ag4
(I288
I1568
I32
I32
tp2870
Rp2871
ag4
(I320
I1568
I32
I32
tp2872
Rp2873
ag4
(I352
I1568
I32
I32
tp2874
Rp2875
ag4
(I384
I1568
I32
I32
tp2876
Rp2877
ag4
(I416
I1568
I32
I32
tp2878
Rp2879
ag4
(I448
I1568
I32
I32
tp2880
Rp2881
ag4
(I480
I1568
I32
I32
tp2882
Rp2883
ag4
(I512
I1568
I32
I32
tp2884
Rp2885
ag4
(I544
I1568
I32
I32
tp2886
Rp2887
ag4
(I576
I1568
I32
I32
tp2888
Rp2889
ag4
(I608
I1568
I32
I32
tp2890
Rp2891
ag4
(I640
I1568
I32
I32
tp2892
Rp2893
ag4
(I672
I1568
I32
I32
tp2894
Rp2895
ag4
(I704
I1568
I32
I32
tp2896
Rp2897
ag4
(I736
I1568
I32
I32
tp2898
Rp2899
ag4
(I768
I1568
I32
I32
tp2900
Rp2901
ag4
(I800
I1568
I32
I32
tp2902
Rp2903
ag4
(I832
I1568
I32
I32
tp2904
Rp2905
ag4
(I864
I1568
I32
I32
tp2906
Rp2907
ag4
(I896
I1568
I32
I32
tp2908
Rp2909
ag4
(I928
I1568
I32
I32
tp2910
Rp2911
ag4
(I960
I1568
I32
I32
tp2912
Rp2913
ag4
(I992
I1568
I32
I32
tp2914
Rp2915
ag4
(I1024
I1568
I32
I32
tp2916
Rp2917
ag4
(I1056
I1568
I32
I32
tp2918
Rp2919
ag4
(I1088
I1568
I32
I32
tp2920
Rp2921
ag4
(I1120
I1568
I32
I32
tp2922
Rp2923
ag4
(I1152
I1568
I32
I32
tp2924
Rp2925
ag4
(I1184
I1568
I32
I32
tp2926
Rp2927
ag4
(I1216
I1568
I32
I32
tp2928
Rp2929
ag4
(I1248
I1568
I32
I32
tp2930
Rp2931
ag4
(I1280
I1568
I32
I32
tp2932
Rp2933
ag4
(I1312
I1568
I32
I32
tp2934
Rp2935
ag4
(I1344
I1568
I32
I32
tp2936
Rp2937
ag4
(I1376
I1568
I32
I32
tp2938
Rp2939
ag4
(I1408
I1568
I32
I32
tp2940
Rp2941
ag4
(I1440
I1568
I32
I32
tp2942
Rp2943
ag4
(I1472
I1568
I32
I32
tp2944
Rp2945
ag4
(I1504
I1568
I32
I32
tp2946
Rp2947
ag4
(I1536
I1568
I32
I32
tp2948
Rp2949
ag4
(I1568
I1568
I32
I32
tp2950
Rp2951
ag4
(I1600
I1568
I32
I32
tp2952
Rp2953
ag4
(I1632
I1568
I32
I32
tp2954
Rp2955
ag4
(I1664
I1568
I32
I32
tp2956
Rp2957
ag4
(I1696
I1568
I32
I32
tp2958
Rp2959
ag4
(I1728
I1568
I32
I32
tp2960
Rp2961
ag4
(I1760
I1568
I32
I32
tp2962
Rp2963
ag4
(I1792
I1568
I32
I32
tp2964
Rp2965
ag4
(I1824
I1568
I32
I32
tp2966
Rp2967
ag4
(I1856
I1568
I32
I32
tp2968
Rp2969
ag4
(I1888
I1568
I32
I32
tp2970
Rp2971
ag4
(I1920
I1568
I32
I32
tp2972
Rp2973
ag4
(I1952
I1568
I32
I32
tp2974
Rp2975
ag4
(I1984
I1568
I32
I32
tp2976
Rp2977
ag4
(I2016
I1568
I32
I32
tp2978
Rp2979
ag4
(I2048
I1568
I32
I32
tp2980
Rp2981
ag4
(I2080
I1568
I32
I32
tp2982
Rp2983
ag4
(I2112
I1568
I32
I32
tp2984
Rp2985
ag4
(I2144
I1568
I32
I32
tp2986
Rp2987
ag4
(I2176
I1568
I32
I32
tp2988
Rp2989
ag4
(I2208
I1568
I32
I32
tp2990
Rp2991
ag4
(I2240
I1568
I32
I32
tp2992
Rp2993
ag4
(I2272
I1568
I32
I32
tp2994
Rp2995
ag4
(I2304
I1568
I32
I32
tp2996
Rp2997
ag4
(I2336
I1568
I32
I32
tp2998
Rp2999
ag4
(I2368
I1568
I32
I32
tp3000
Rp3001
ag4
(I2400
I1568
I32
I32
tp3002
Rp3003
ag4
(I2432
I1568
I32
I32
tp3004
Rp3005
ag4
(I2464
I1568
I32
I32
tp3006
Rp3007
ag4
(I2496
I1568
I32
I32
tp3008
Rp3009
ag4
(I2528
I1568
I32
I32
tp3010
Rp3011
ag4
(I2560
I1568
I32
I32
tp3012
Rp3013
ag4
(I2592
I1568
I32
I32
tp3014
Rp3015
ag4
(I2624
I1568
I32
I32
tp3016
Rp3017
ag4
(I2656
I1568
I32
I32
tp3018
Rp3019
ag4
(I2688
I1568
I32
I32
tp3020
Rp3021
ag4
(I2912
I1568
I32
I32
tp3022
Rp3023
ag4
(I2944
I1568
I32
I32
tp3024
Rp3025
ag4
(I3168
I1568
I32
I32
tp3026
Rp3027
ag4
(I0
I1600
I32
I32
tp3028
Rp3029
ag4
(I576
I1600
I32
I32
tp3030
Rp3031
ag4
(I2688
I1600
I32
I32
tp3032
Rp3033
ag4
(I3168
I1600
I32
I32
tp3034
Rp3035
ag4
(I0
I1632
I32
I32
tp3036
Rp3037
ag4
(I576
I1632
I32
I32
tp3038
Rp3039
ag4
(I1728
I1632
I32
I32
tp3040
Rp3041
ag4
(I2048
I1632
I32
I32
tp3042
Rp3043
ag4
(I2688
I1632
I32
I32
tp3044
Rp3045
ag4
(I3168
I1632
I32
I32
tp3046
Rp3047
ag4
(I0
I1664
I32
I32
tp3048
Rp3049
ag4
(I1152
I1664
I32
I32
tp3050
Rp3051
ag4
(I1184
I1664
I32
I32
tp3052
Rp3053
ag4
(I1216
I1664
I32
I32
tp3054
Rp3055
ag4
(I1248
I1664
I32
I32
tp3056
Rp3057
ag4
(I1728
I1664
I32
I32
tp3058
Rp3059
ag4
(I1760
I1664
I32
I32
tp3060
Rp3061
ag4
(I2016
I1664
I32
I32
tp3062
Rp3063
ag4
(I2048
I1664
I32
I32
tp3064
Rp3065
ag4
(I2688
I1664
I32
I32
tp3066
Rp3067
ag4
(I2784
I1664
I32
I32
tp3068
Rp3069
ag4
(I2816
I1664
I32
I32
tp3070
Rp3071
ag4
(I3040
I1664
I32
I32
tp3072
Rp3073
ag4
(I3072
I1664
I32
I32
tp3074
Rp3075
ag4
(I3168
I1664
I32
I32
tp3076
Rp3077
ag4
(I0
I1696
I32
I32
tp3078
Rp3079
ag4
(I320
I1696
I32
I32
tp3080
Rp3081
ag4
(I352
I1696
I32
I32
tp3082
Rp3083
ag4
(I384
I1696
I32
I32
tp3084
Rp3085
ag4
(I416
I1696
I32
I32
tp3086
Rp3087
ag4
(I448
I1696
I32
I32
tp3088
Rp3089
ag4
(I480
I1696
I32
I32
tp3090
Rp3091
ag4
(I512
I1696
I32
I32
tp3092
Rp3093
ag4
(I544
I1696
I32
I32
tp3094
Rp3095
ag4
(I576
I1696
I32
I32
tp3096
Rp3097
ag4
(I608
I1696
I32
I32
tp3098
Rp3099
ag4
(I640
I1696
I32
I32
tp3100
Rp3101
ag4
(I672
I1696
I32
I32
tp3102
Rp3103
ag4
(I704
I1696
I32
I32
tp3104
Rp3105
ag4
(I736
I1696
I32
I32
tp3106
Rp3107
ag4
(I768
I1696
I32
I32
tp3108
Rp3109
ag4
(I800
I1696
I32
I32
tp3110
Rp3111
ag4
(I832
I1696
I32
I32
tp3112
Rp3113
ag4
(I864
I1696
I32
I32
tp3114
Rp3115
ag4
(I896
I1696
I32
I32
tp3116
Rp3117
ag4
(I928
I1696
I32
I32
tp3118
Rp3119
ag4
(I960
I1696
I32
I32
tp3120
Rp3121
ag4
(I992
I1696
I32
I32
tp3122
Rp3123
ag4
(I1024
I1696
I32
I32
tp3124
Rp3125
ag4
(I1056
I1696
I32
I32
tp3126
Rp3127
ag4
(I1088
I1696
I32
I32
tp3128
Rp3129
ag4
(I1120
I1696
I32
I32
tp3130
Rp3131
ag4
(I1152
I1696
I32
I32
tp3132
Rp3133
ag4
(I1184
I1696
I32
I32
tp3134
Rp3135
ag4
(I1216
I1696
I32
I32
tp3136
Rp3137
ag4
(I1248
I1696
I32
I32
tp3138
Rp3139
ag4
(I1280
I1696
I32
I32
tp3140
Rp3141
ag4
(I1312
I1696
I32
I32
tp3142
Rp3143
ag4
(I1344
I1696
I32
I32
tp3144
Rp3145
ag4
(I1376
I1696
I32
I32
tp3146
Rp3147
ag4
(I1408
I1696
I32
I32
tp3148
Rp3149
ag4
(I1440
I1696
I32
I32
tp3150
Rp3151
ag4
(I1472
I1696
I32
I32
tp3152
Rp3153
ag4
(I1504
I1696
I32
I32
tp3154
Rp3155
ag4
(I1536
I1696
I32
I32
tp3156
Rp3157
ag4
(I1568
I1696
I32
I32
tp3158
Rp3159
ag4
(I1600
I1696
I32
I32
tp3160
Rp3161
ag4
(I1632
I1696
I32
I32
tp3162
Rp3163
ag4
(I1664
I1696
I32
I32
tp3164
Rp3165
ag4
(I1696
I1696
I32
I32
tp3166
Rp3167
ag4
(I1728
I1696
I32
I32
tp3168
Rp3169
ag4
(I1760
I1696
I32
I32
tp3170
Rp3171
ag4
(I1792
I1696
I32
I32
tp3172
Rp3173
ag4
(I1824
I1696
I32
I32
tp3174
Rp3175
ag4
(I1856
I1696
I32
I32
tp3176
Rp3177
ag4
(I1888
I1696
I32
I32
tp3178
Rp3179
ag4
(I1920
I1696
I32
I32
tp3180
Rp3181
ag4
(I1952
I1696
I32
I32
tp3182
Rp3183
ag4
(I1984
I1696
I32
I32
tp3184
Rp3185
ag4
(I2016
I1696
I32
I32
tp3186
Rp3187
ag4
(I2048
I1696
I32
I32
tp3188
Rp3189
ag4
(I2080
I1696
I32
I32
tp3190
Rp3191
ag4
(I2112
I1696
I32
I32
tp3192
Rp3193
ag4
(I2144
I1696
I32
I32
tp3194
Rp3195
ag4
(I2176
I1696
I32
I32
tp3196
Rp3197
ag4
(I2208
I1696
I32
I32
tp3198
Rp3199
ag4
(I2240
I1696
I32
I32
tp3200
Rp3201
ag4
(I2272
I1696
I32
I32
tp3202
Rp3203
ag4
(I2688
I1696
I32
I32
tp3204
Rp3205
ag4
(I2784
I1696
I32
I32
tp3206
Rp3207
ag4
(I2816
I1696
I32
I32
tp3208
Rp3209
ag4
(I3040
I1696
I32
I32
tp3210
Rp3211
ag4
(I3072
I1696
I32
I32
tp3212
Rp3213
ag4
(I3168
I1696
I32
I32
tp3214
Rp3215
ag4
(I0
I1728
I32
I32
tp3216
Rp3217
ag4
(I2368
I1728
I32
I32
tp3218
Rp3219
ag4
(I2688
I1728
I32
I32
tp3220
Rp3221
ag4
(I3168
I1728
I32
I32
tp3222
Rp3223
ag4
(I0
I1760
I32
I32
tp3224
Rp3225
ag4
(I192
I1760
I32
I32
tp3226
Rp3227
ag4
(I2464
I1760
I32
I32
tp3228
Rp3229
ag4
(I2688
I1760
I32
I32
tp3230
Rp3231
ag4
(I2912
I1760
I32
I32
tp3232
Rp3233
ag4
(I2944
I1760
I32
I32
tp3234
Rp3235
ag4
(I3168
I1760
I32
I32
tp3236
Rp3237
ag4
(I0
I1792
I32
I32
tp3238
Rp3239
ag4
(I672
I1792
I32
I32
tp3240
Rp3241
ag4
(I1632
I1792
I32
I32
tp3242
Rp3243
ag4
(I2688
I1792
I32
I32
tp3244
Rp3245
ag4
(I2912
I1792
I32
I32
tp3246
Rp3247
ag4
(I2944
I1792
I32
I32
tp3248
Rp3249
ag4
(I3168
I1792
I32
I32
tp3250
Rp3251
ag4
(I0
I1824
I32
I32
tp3252
Rp3253
ag4
(I32
I1824
I32
I32
tp3254
Rp3255
ag4
(I480
I1824
I32
I32
tp3256
Rp3257
ag4
(I1248
I1824
I32
I32
tp3258
Rp3259
ag4
(I1792
I1824
I32
I32
tp3260
Rp3261
ag4
(I2560
I1824
I32
I32
tp3262
Rp3263
ag4
(I2688
I1824
I32
I32
tp3264
Rp3265
ag4
(I3168
I1824
I32
I32
tp3266
Rp3267
ag4
(I0
I1856
I32
I32
tp3268
Rp3269
ag4
(I608
I1856
I32
I32
tp3270
Rp3271
ag4
(I800
I1856
I32
I32
tp3272
Rp3273
ag4
(I1376
I1856
I32
I32
tp3274
Rp3275
ag4
(I1568
I1856
I32
I32
tp3276
Rp3277
ag4
(I2080
I1856
I32
I32
tp3278
Rp3279
ag4
(I2176
I1856
I32
I32
tp3280
Rp3281
ag4
(I2688
I1856
I32
I32
tp3282
Rp3283
ag4
(I3040
I1856
I32
I32
tp3284
Rp3285
ag4
(I3072
I1856
I32
I32
tp3286
Rp3287
ag4
(I3168
I1856
I32
I32
tp3288
Rp3289
ag4
(I0
I1888
I32
I32
tp3290
Rp3291
ag4
(I96
I1888
I32
I32
tp3292
Rp3293
ag4
(I384
I1888
I32
I32
tp3294
Rp3295
ag4
(I1152
I1888
I32
I32
tp3296
Rp3297
ag4
(I1696
I1888
I32
I32
tp3298
Rp3299
ag4
(I1920
I1888
I32
I32
tp3300
Rp3301
ag4
(I2304
I1888
I32
I32
tp3302
Rp3303
ag4
(I2656
I1888
I32
I32
tp3304
Rp3305
ag4
(I2688
I1888
I32
I32
tp3306
Rp3307
ag4
(I3040
I1888
I32
I32
tp3308
Rp3309
ag4
(I3072
I1888
I32
I32
tp3310
Rp3311
ag4
(I3168
I1888
I32
I32
tp3312
Rp3313
ag4
(I0
I1920
I32
I32
tp3314
Rp3315
ag4
(I288
I1920
I32
I32
tp3316
Rp3317
ag4
(I928
I1920
I32
I32
tp3318
Rp3319
ag4
(I1472
I1920
I32
I32
tp3320
Rp3321
ag4
(I2304
I1920
I32
I32
tp3322
Rp3323
ag4
(I3168
I1920
I32
I32
tp3324
Rp3325
ag4
(I0
I1952
I32
I32
tp3326
Rp3327
ag4
(I288
I1952
I32
I32
tp3328
Rp3329
ag4
(I928
I1952
I32
I32
tp3330
Rp3331
ag4
(I1472
I1952
I32
I32
tp3332
Rp3333
ag4
(I2304
I1952
I32
I32
tp3334
Rp3335
ag4
(I3168
I1952
I32
I32
tp3336
Rp3337
ag4
(I0
I1984
I32
I32
tp3338
Rp3339
ag4
(I128
I1984
I32
I32
tp3340
Rp3341
ag4
(I160
I1984
I32
I32
tp3342
Rp3343
ag4
(I192
I1984
I32
I32
tp3344
Rp3345
ag4
(I224
I1984
I32
I32
tp3346
Rp3347
ag4
(I256
I1984
I32
I32
tp3348
Rp3349
ag4
(I288
I1984
I32
I32
tp3350
Rp3351
ag4
(I320
I1984
I32
I32
tp3352
Rp3353
ag4
(I352
I1984
I32
I32
tp3354
Rp3355
ag4
(I384
I1984
I32
I32
tp3356
Rp3357
ag4
(I416
I1984
I32
I32
tp3358
Rp3359
ag4
(I448
I1984
I32
I32
tp3360
Rp3361
ag4
(I480
I1984
I32
I32
tp3362
Rp3363
ag4
(I512
I1984
I32
I32
tp3364
Rp3365
ag4
(I544
I1984
I32
I32
tp3366
Rp3367
ag4
(I576
I1984
I32
I32
tp3368
Rp3369
ag4
(I608
I1984
I32
I32
tp3370
Rp3371
ag4
(I640
I1984
I32
I32
tp3372
Rp3373
ag4
(I672
I1984
I32
I32
tp3374
Rp3375
ag4
(I704
I1984
I32
I32
tp3376
Rp3377
ag4
(I736
I1984
I32
I32
tp3378
Rp3379
ag4
(I768
I1984
I32
I32
tp3380
Rp3381
ag4
(I800
I1984
I32
I32
tp3382
Rp3383
ag4
(I832
I1984
I32
I32
tp3384
Rp3385
ag4
(I864
I1984
I32
I32
tp3386
Rp3387
ag4
(I896
I1984
I32
I32
tp3388
Rp3389
ag4
(I928
I1984
I32
I32
tp3390
Rp3391
ag4
(I960
I1984
I32
I32
tp3392
Rp3393
ag4
(I992
I1984
I32
I32
tp3394
Rp3395
ag4
(I1024
I1984
I32
I32
tp3396
Rp3397
ag4
(I1056
I1984
I32
I32
tp3398
Rp3399
ag4
(I1088
I1984
I32
I32
tp3400
Rp3401
ag4
(I1120
I1984
I32
I32
tp3402
Rp3403
ag4
(I1152
I1984
I32
I32
tp3404
Rp3405
ag4
(I1184
I1984
I32
I32
tp3406
Rp3407
ag4
(I1216
I1984
I32
I32
tp3408
Rp3409
ag4
(I1248
I1984
I32
I32
tp3410
Rp3411
ag4
(I1280
I1984
I32
I32
tp3412
Rp3413
ag4
(I1312
I1984
I32
I32
tp3414
Rp3415
ag4
(I1344
I1984
I32
I32
tp3416
Rp3417
ag4
(I1376
I1984
I32
I32
tp3418
Rp3419
ag4
(I1408
I1984
I32
I32
tp3420
Rp3421
ag4
(I1440
I1984
I32
I32
tp3422
Rp3423
ag4
(I1472
I1984
I32
I32
tp3424
Rp3425
ag4
(I1504
I1984
I32
I32
tp3426
Rp3427
ag4
(I1536
I1984
I32
I32
tp3428
Rp3429
ag4
(I1568
I1984
I32
I32
tp3430
Rp3431
ag4
(I1600
I1984
I32
I32
tp3432
Rp3433
ag4
(I1632
I1984
I32
I32
tp3434
Rp3435
ag4
(I1664
I1984
I32
I32
tp3436
Rp3437
ag4
(I1696
I1984
I32
I32
tp3438
Rp3439
ag4
(I1728
I1984
I32
I32
tp3440
Rp3441
ag4
(I1760
I1984
I32
I32
tp3442
Rp3443
ag4
(I1792
I1984
I32
I32
tp3444
Rp3445
ag4
(I1824
I1984
I32
I32
tp3446
Rp3447
ag4
(I1856
I1984
I32
I32
tp3448
Rp3449
ag4
(I1888
I1984
I32
I32
tp3450
Rp3451
ag4
(I1920
I1984
I32
I32
tp3452
Rp3453
ag4
(I1952
I1984
I32
I32
tp3454
Rp3455
ag4
(I1984
I1984
I32
I32
tp3456
Rp3457
ag4
(I2016
I1984
I32
I32
tp3458
Rp3459
ag4
(I2048
I1984
I32
I32
tp3460
Rp3461
ag4
(I2080
I1984
I32
I32
tp3462
Rp3463
ag4
(I2112
I1984
I32
I32
tp3464
Rp3465
ag4
(I2144
I1984
I32
I32
tp3466
Rp3467
ag4
(I2176
I1984
I32
I32
tp3468
Rp3469
ag4
(I2208
I1984
I32
I32
tp3470
Rp3471
ag4
(I2240
I1984
I32
I32
tp3472
Rp3473
ag4
(I2272
I1984
I32
I32
tp3474
Rp3475
ag4
(I2304
I1984
I32
I32
tp3476
Rp3477
ag4
(I2336
I1984
I32
I32
tp3478
Rp3479
ag4
(I2368
I1984
I32
I32
tp3480
Rp3481
ag4
(I2400
I1984
I32
I32
tp3482
Rp3483
ag4
(I2432
I1984
I32
I32
tp3484
Rp3485
ag4
(I2464
I1984
I32
I32
tp3486
Rp3487
ag4
(I2496
I1984
I32
I32
tp3488
Rp3489
ag4
(I2528
I1984
I32
I32
tp3490
Rp3491
ag4
(I2560
I1984
I32
I32
tp3492
Rp3493
ag4
(I2592
I1984
I32
I32
tp3494
Rp3495
ag4
(I2624
I1984
I32
I32
tp3496
Rp3497
ag4
(I2656
I1984
I32
I32
tp3498
Rp3499
ag4
(I2688
I1984
I32
I32
tp3500
Rp3501
ag4
(I2720
I1984
I32
I32
tp3502
Rp3503
ag4
(I2752
I1984
I32
I32
tp3504
Rp3505
ag4
(I2784
I1984
I32
I32
tp3506
Rp3507
ag4
(I2816
I1984
I32
I32
tp3508
Rp3509
ag4
(I2848
I1984
I32
I32
tp3510
Rp3511
ag4
(I2880
I1984
I32
I32
tp3512
Rp3513
ag4
(I2912
I1984
I32
I32
tp3514
Rp3515
ag4
(I2944
I1984
I32
I32
tp3516
Rp3517
ag4
(I2976
I1984
I32
I32
tp3518
Rp3519
ag4
(I3008
I1984
I32
I32
tp3520
Rp3521
ag4
(I3040
I1984
I32
I32
tp3522
Rp3523
ag4
(I3072
I1984
I32
I32
tp3524
Rp3525
ag4
(I3104
I1984
I32
I32
tp3526
Rp3527
ag4
(I3136
I1984
I32
I32
tp3528
Rp3529
ag4
(I3168
I1984
I32
I32
tp3530
Rp3531
ag4
(I0
I2016
I32
I32
tp3532
Rp3533
ag4
(I32
I2016
I32
I32
tp3534
Rp3535
ag4
(I128
I2016
I32
I32
tp3536
Rp3537
ag4
(I160
I2016
I32
I32
tp3538
Rp3539
ag4
(I320
I2016
I32
I32
tp3540
Rp3541
ag4
(I352
I2016
I32
I32
tp3542
Rp3543
ag4
(I3168
I2016
I32
I32
tp3544
Rp3545
ag4
(I0
I2048
I32
I32
tp3546
Rp3547
ag4
(I32
I2048
I32
I32
tp3548
Rp3549
ag4
(I64
I2048
I32
I32
tp3550
Rp3551
ag4
(I160
I2048
I32
I32
tp3552
Rp3553
ag4
(I192
I2048
I32
I32
tp3554
Rp3555
ag4
(I288
I2048
I32
I32
tp3556
Rp3557
ag4
(I320
I2048
I32
I32
tp3558
Rp3559
ag4
(I416
I2048
I32
I32
tp3560
Rp3561
ag4
(I448
I2048
I32
I32
tp3562
Rp3563
ag4
(I928
I2048
I32
I32
tp3564
Rp3565
ag4
(I960
I2048
I32
I32
tp3566
Rp3567
ag4
(I992
I2048
I32
I32
tp3568
Rp3569
ag4
(I1024
I2048
I32
I32
tp3570
Rp3571
ag4
(I1056
I2048
I32
I32
tp3572
Rp3573
ag4
(I1088
I2048
I32
I32
tp3574
Rp3575
ag4
(I1120
I2048
I32
I32
tp3576
Rp3577
ag4
(I3168
I2048
I32
I32
tp3578
Rp3579
ag4
(I64
I2080
I32
I32
tp3580
Rp3581
ag4
(I96
I2080
I32
I32
tp3582
Rp3583
ag4
(I192
I2080
I32
I32
tp3584
Rp3585
ag4
(I224
I2080
I32
I32
tp3586
Rp3587
ag4
(I256
I2080
I32
I32
tp3588
Rp3589
ag4
(I288
I2080
I32
I32
tp3590
Rp3591
ag4
(I384
I2080
I32
I32
tp3592
Rp3593
ag4
(I416
I2080
I32
I32
tp3594
Rp3595
ag4
(I448
I2080
I32
I32
tp3596
Rp3597
ag4
(I480
I2080
I32
I32
tp3598
Rp3599
ag4
(I512
I2080
I32
I32
tp3600
Rp3601
ag4
(I864
I2080
I32
I32
tp3602
Rp3603
ag4
(I896
I2080
I32
I32
tp3604
Rp3605
ag4
(I928
I2080
I32
I32
tp3606
Rp3607
ag4
(I1120
I2080
I32
I32
tp3608
Rp3609
ag4
(I1152
I2080
I32
I32
tp3610
Rp3611
ag4
(I1568
I2080
I32
I32
tp3612
Rp3613
ag4
(I1760
I2080
I32
I32
tp3614
Rp3615
ag4
(I2464
I2080
I32
I32
tp3616
Rp3617
ag4
(I2496
I2080
I32
I32
tp3618
Rp3619
ag4
(I2528
I2080
I32
I32
tp3620
Rp3621
ag4
(I3168
I2080
I32
I32
tp3622
Rp3623
ag4
(I96
I2112
I32
I32
tp3624
Rp3625
ag4
(I128
I2112
I32
I32
tp3626
Rp3627
ag4
(I352
I2112
I32
I32
tp3628
Rp3629
ag4
(I384
I2112
I32
I32
tp3630
Rp3631
ag4
(I512
I2112
I32
I32
tp3632
Rp3633
ag4
(I544
I2112
I32
I32
tp3634
Rp3635
ag4
(I576
I2112
I32
I32
tp3636
Rp3637
ag4
(I800
I2112
I32
I32
tp3638
Rp3639
ag4
(I832
I2112
I32
I32
tp3640
Rp3641
ag4
(I864
I2112
I32
I32
tp3642
Rp3643
ag4
(I1152
I2112
I32
I32
tp3644
Rp3645
ag4
(I1184
I2112
I32
I32
tp3646
Rp3647
ag4
(I1536
I2112
I32
I32
tp3648
Rp3649
ag4
(I1568
I2112
I32
I32
tp3650
Rp3651
ag4
(I1760
I2112
I32
I32
tp3652
Rp3653
ag4
(I1792
I2112
I32
I32
tp3654
Rp3655
ag4
(I2816
I2112
I32
I32
tp3656
Rp3657
ag4
(I3168
I2112
I32
I32
tp3658
Rp3659
ag4
(I128
I2144
I32
I32
tp3660
Rp3661
ag4
(I160
I2144
I32
I32
tp3662
Rp3663
ag4
(I320
I2144
I32
I32
tp3664
Rp3665
ag4
(I352
I2144
I32
I32
tp3666
Rp3667
ag4
(I576
I2144
I32
I32
tp3668
Rp3669
ag4
(I608
I2144
I32
I32
tp3670
Rp3671
ag4
(I640
I2144
I32
I32
tp3672
Rp3673
ag4
(I736
I2144
I32
I32
tp3674
Rp3675
ag4
(I768
I2144
I32
I32
tp3676
Rp3677
ag4
(I800
I2144
I32
I32
tp3678
Rp3679
ag4
(I1184
I2144
I32
I32
tp3680
Rp3681
ag4
(I1216
I2144
I32
I32
tp3682
Rp3683
ag4
(I1504
I2144
I32
I32
tp3684
Rp3685
ag4
(I1536
I2144
I32
I32
tp3686
Rp3687
ag4
(I1568
I2144
I32
I32
tp3688
Rp3689
ag4
(I1664
I2144
I32
I32
tp3690
Rp3691
ag4
(I1760
I2144
I32
I32
tp3692
Rp3693
ag4
(I1792
I2144
I32
I32
tp3694
Rp3695
ag4
(I1824
I2144
I32
I32
tp3696
Rp3697
ag4
(I3168
I2144
I32
I32
tp3698
Rp3699
ag4
(I0
I2176
I32
I32
tp3700
Rp3701
ag4
(I32
I2176
I32
I32
tp3702
Rp3703
ag4
(I64
I2176
I32
I32
tp3704
Rp3705
ag4
(I96
I2176
I32
I32
tp3706
Rp3707
ag4
(I128
I2176
I32
I32
tp3708
Rp3709
ag4
(I160
I2176
I32
I32
tp3710
Rp3711
ag4
(I192
I2176
I32
I32
tp3712
Rp3713
ag4
(I224
I2176
I32
I32
tp3714
Rp3715
ag4
(I256
I2176
I32
I32
tp3716
Rp3717
ag4
(I288
I2176
I32
I32
tp3718
Rp3719
ag4
(I320
I2176
I32
I32
tp3720
Rp3721
ag4
(I352
I2176
I32
I32
tp3722
Rp3723
ag4
(I384
I2176
I32
I32
tp3724
Rp3725
ag4
(I416
I2176
I32
I32
tp3726
Rp3727
ag4
(I448
I2176
I32
I32
tp3728
Rp3729
ag4
(I480
I2176
I32
I32
tp3730
Rp3731
ag4
(I512
I2176
I32
I32
tp3732
Rp3733
ag4
(I544
I2176
I32
I32
tp3734
Rp3735
ag4
(I576
I2176
I32
I32
tp3736
Rp3737
ag4
(I608
I2176
I32
I32
tp3738
Rp3739
ag4
(I640
I2176
I32
I32
tp3740
Rp3741
ag4
(I672
I2176
I32
I32
tp3742
Rp3743
ag4
(I704
I2176
I32
I32
tp3744
Rp3745
ag4
(I736
I2176
I32
I32
tp3746
Rp3747
ag4
(I768
I2176
I32
I32
tp3748
Rp3749
ag4
(I800
I2176
I32
I32
tp3750
Rp3751
ag4
(I832
I2176
I32
I32
tp3752
Rp3753
ag4
(I864
I2176
I32
I32
tp3754
Rp3755
ag4
(I896
I2176
I32
I32
tp3756
Rp3757
ag4
(I928
I2176
I32
I32
tp3758
Rp3759
ag4
(I960
I2176
I32
I32
tp3760
Rp3761
ag4
(I992
I2176
I32
I32
tp3762
Rp3763
ag4
(I1024
I2176
I32
I32
tp3764
Rp3765
ag4
(I1056
I2176
I32
I32
tp3766
Rp3767
ag4
(I1088
I2176
I32
I32
tp3768
Rp3769
ag4
(I1120
I2176
I32
I32
tp3770
Rp3771
ag4
(I1152
I2176
I32
I32
tp3772
Rp3773
ag4
(I1184
I2176
I32
I32
tp3774
Rp3775
ag4
(I1216
I2176
I32
I32
tp3776
Rp3777
ag4
(I1248
I2176
I32
I32
tp3778
Rp3779
ag4
(I1280
I2176
I32
I32
tp3780
Rp3781
ag4
(I1312
I2176
I32
I32
tp3782
Rp3783
ag4
(I1344
I2176
I32
I32
tp3784
Rp3785
ag4
(I1376
I2176
I32
I32
tp3786
Rp3787
ag4
(I1408
I2176
I32
I32
tp3788
Rp3789
ag4
(I1440
I2176
I32
I32
tp3790
Rp3791
ag4
(I1472
I2176
I32
I32
tp3792
Rp3793
ag4
(I1504
I2176
I32
I32
tp3794
Rp3795
ag4
(I1536
I2176
I32
I32
tp3796
Rp3797
ag4
(I1568
I2176
I32
I32
tp3798
Rp3799
ag4
(I1600
I2176
I32
I32
tp3800
Rp3801
ag4
(I1632
I2176
I32
I32
tp3802
Rp3803
ag4
(I1664
I2176
I32
I32
tp3804
Rp3805
ag4
(I1696
I2176
I32
I32
tp3806
Rp3807
ag4
(I1728
I2176
I32
I32
tp3808
Rp3809
ag4
(I1760
I2176
I32
I32
tp3810
Rp3811
ag4
(I1792
I2176
I32
I32
tp3812
Rp3813
ag4
(I1824
I2176
I32
I32
tp3814
Rp3815
ag4
(I1856
I2176
I32
I32
tp3816
Rp3817
ag4
(I1888
I2176
I32
I32
tp3818
Rp3819
ag4
(I1920
I2176
I32
I32
tp3820
Rp3821
ag4
(I1952
I2176
I32
I32
tp3822
Rp3823
ag4
(I1984
I2176
I32
I32
tp3824
Rp3825
ag4
(I2016
I2176
I32
I32
tp3826
Rp3827
ag4
(I2048
I2176
I32
I32
tp3828
Rp3829
ag4
(I2080
I2176
I32
I32
tp3830
Rp3831
ag4
(I2112
I2176
I32
I32
tp3832
Rp3833
ag4
(I2144
I2176
I32
I32
tp3834
Rp3835
ag4
(I2176
I2176
I32
I32
tp3836
Rp3837
ag4
(I2208
I2176
I32
I32
tp3838
Rp3839
ag4
(I2240
I2176
I32
I32
tp3840
Rp3841
ag4
(I2272
I2176
I32
I32
tp3842
Rp3843
ag4
(I2304
I2176
I32
I32
tp3844
Rp3845
ag4
(I2528
I2176
I32
I32
tp3846
Rp3847
ag4
(I2560
I2176
I32
I32
tp3848
Rp3849
ag4
(I2592
I2176
I32
I32
tp3850
Rp3851
ag4
(I2624
I2176
I32
I32
tp3852
Rp3853
ag4
(I3168
I2176
I32
I32
tp3854
Rp3855
ag4
(I0
I2208
I32
I32
tp3856
Rp3857
ag4
(I2304
I2208
I32
I32
tp3858
Rp3859
ag4
(I2752
I2208
I32
I32
tp3860
Rp3861
ag4
(I2784
I2208
I32
I32
tp3862
Rp3863
ag4
(I2816
I2208
I32
I32
tp3864
Rp3865
ag4
(I2848
I2208
I32
I32
tp3866
Rp3867
ag4
(I2880
I2208
I32
I32
tp3868
Rp3869
ag4
(I3168
I2208
I32
I32
tp3870
Rp3871
ag4
(I0
I2240
I32
I32
tp3872
Rp3873
ag4
(I2304
I2240
I32
I32
tp3874
Rp3875
ag4
(I2400
I2240
I32
I32
tp3876
Rp3877
ag4
(I2432
I2240
I32
I32
tp3878
Rp3879
ag4
(I3040
I2240
I32
I32
tp3880
Rp3881
ag4
(I3072
I2240
I32
I32
tp3882
Rp3883
ag4
(I3104
I2240
I32
I32
tp3884
Rp3885
ag4
(I3136
I2240
I32
I32
tp3886
Rp3887
ag4
(I3168
I2240
I32
I32
tp3888
Rp3889
ag4
(I0
I2272
I32
I32
tp3890
Rp3891
ag4
(I2304
I2272
I32
I32
tp3892
Rp3893
ag4
(I3168
I2272
I32
I32
tp3894
Rp3895
ag4
(I0
I2304
I32
I32
tp3896
Rp3897
ag4
(I2304
I2304
I32
I32
tp3898
Rp3899
ag4
(I2528
I2304
I32
I32
tp3900
Rp3901
ag4
(I2560
I2304
I32
I32
tp3902
Rp3903
ag4
(I2592
I2304
I32
I32
tp3904
Rp3905
ag4
(I2912
I2304
I32
I32
tp3906
Rp3907
ag4
(I2944
I2304
I32
I32
tp3908
Rp3909
ag4
(I2976
I2304
I32
I32
tp3910
Rp3911
ag4
(I3168
I2304
I32
I32
tp3912
Rp3913
ag4
(I0
I2336
I32
I32
tp3914
Rp3915
ag4
(I2304
I2336
I32
I32
tp3916
Rp3917
ag4
(I3168
I2336
I32
I32
tp3918
Rp3919
ag4
(I0
I2368
I32
I32
tp3920
Rp3921
ag4
(I2304
I2368
I32
I32
tp3922
Rp3923
ag4
(I2720
I2368
I32
I32
tp3924
Rp3925
ag4
(I2752
I2368
I32
I32
tp3926
Rp3927
ag4
(I3168
I2368
I32
I32
tp3928
Rp3929
ag4
(I0
I2400
I32
I32
tp3930
Rp3931
ag4
(I2304
I2400
I32
I32
tp3932
Rp3933
ag4
(I3168
I2400
I32
I32
tp3934
Rp3935
ag4
(I0
I2432
I32
I32
tp3936
Rp3937
ag4
(I1120
I2432
I32
I32
tp3938
Rp3939
ag4
(I1152
I2432
I32
I32
tp3940
Rp3941
ag4
(I1184
I2432
I32
I32
tp3942
Rp3943
ag4
(I1216
I2432
I32
I32
tp3944
Rp3945
ag4
(I1248
I2432
I32
I32
tp3946
Rp3947
ag4
(I1280
I2432
I32
I32
tp3948
Rp3949
ag4
(I1312
I2432
I32
I32
tp3950
Rp3951
ag4
(I1344
I2432
I32
I32
tp3952
Rp3953
ag4
(I1376
I2432
I32
I32
tp3954
Rp3955
ag4
(I1408
I2432
I32
I32
tp3956
Rp3957
ag4
(I1440
I2432
I32
I32
tp3958
Rp3959
ag4
(I1472
I2432
I32
I32
tp3960
Rp3961
ag4
(I1504
I2432
I32
I32
tp3962
Rp3963
ag4
(I1536
I2432
I32
I32
tp3964
Rp3965
ag4
(I1568
I2432
I32
I32
tp3966
Rp3967
ag4
(I2304
I2432
I32
I32
tp3968
Rp3969
ag4
(I3168
I2432
I32
I32
tp3970
Rp3971
ag4
(I0
I2464
I32
I32
tp3972
Rp3973
ag4
(I1120
I2464
I32
I32
tp3974
Rp3975
ag4
(I2304
I2464
I32
I32
tp3976
Rp3977
ag4
(I2656
I2464
I32
I32
tp3978
Rp3979
ag4
(I2688
I2464
I32
I32
tp3980
Rp3981
ag4
(I2720
I2464
I32
I32
tp3982
Rp3983
ag4
(I2752
I2464
I32
I32
tp3984
Rp3985
ag4
(I2784
I2464
I32
I32
tp3986
Rp3987
ag4
(I2816
I2464
I32
I32
tp3988
Rp3989
ag4
(I3168
I2464
I32
I32
tp3990
Rp3991
ag4
(I0
I2496
I32
I32
tp3992
Rp3993
ag4
(I160
I2496
I32
I32
tp3994
Rp3995
ag4
(I192
I2496
I32
I32
tp3996
Rp3997
ag4
(I224
I2496
I32
I32
tp3998
Rp3999
ag4
(I256
I2496
I32
I32
tp4000
Rp4001
ag4
(I288
I2496
I32
I32
tp4002
Rp4003
ag4
(I320
I2496
I32
I32
tp4004
Rp4005
ag4
(I352
I2496
I32
I32
tp4006
Rp4007
ag4
(I384
I2496
I32
I32
tp4008
Rp4009
ag4
(I416
I2496
I32
I32
tp4010
Rp4011
ag4
(I448
I2496
I32
I32
tp4012
Rp4013
ag4
(I480
I2496
I32
I32
tp4014
Rp4015
ag4
(I512
I2496
I32
I32
tp4016
Rp4017
ag4
(I544
I2496
I32
I32
tp4018
Rp4019
ag4
(I576
I2496
I32
I32
tp4020
Rp4021
ag4
(I608
I2496
I32
I32
tp4022
Rp4023
ag4
(I640
I2496
I32
I32
tp4024
Rp4025
ag4
(I672
I2496
I32
I32
tp4026
Rp4027
ag4
(I704
I2496
I32
I32
tp4028
Rp4029
ag4
(I736
I2496
I32
I32
tp4030
Rp4031
ag4
(I768
I2496
I32
I32
tp4032
Rp4033
ag4
(I800
I2496
I32
I32
tp4034
Rp4035
ag4
(I832
I2496
I32
I32
tp4036
Rp4037
ag4
(I864
I2496
I32
I32
tp4038
Rp4039
ag4
(I1056
I2496
I32
I32
tp4040
Rp4041
ag4
(I1088
I2496
I32
I32
tp4042
Rp4043
ag4
(I1120
I2496
I32
I32
tp4044
Rp4045
ag4
(I2304
I2496
I32
I32
tp4046
Rp4047
ag4
(I2720
I2496
I32
I32
tp4048
Rp4049
ag4
(I2752
I2496
I32
I32
tp4050
Rp4051
ag4
(I3168
I2496
I32
I32
tp4052
Rp4053
ag4
(I0
I2528
I32
I32
tp4054
Rp4055
ag4
(I160
I2528
I32
I32
tp4056
Rp4057
ag4
(I512
I2528
I32
I32
tp4058
Rp4059
ag4
(I704
I2528
I32
I32
tp4060
Rp4061
ag4
(I864
I2528
I32
I32
tp4062
Rp4063
ag4
(I1600
I2528
I32
I32
tp4064
Rp4065
ag4
(I1632
I2528
I32
I32
tp4066
Rp4067
ag4
(I1664
I2528
I32
I32
tp4068
Rp4069
ag4
(I2304
I2528
I32
I32
tp4070
Rp4071
ag4
(I2400
I2528
I32
I32
tp4072
Rp4073
ag4
(I2720
I2528
I32
I32
tp4074
Rp4075
ag4
(I2752
I2528
I32
I32
tp4076
Rp4077
ag4
(I2880
I2528
I32
I32
tp4078
Rp4079
ag4
(I3168
I2528
I32
I32
tp4080
Rp4081
ag4
(I0
I2560
I32
I32
tp4082
Rp4083
ag4
(I32
I2560
I32
I32
tp4084
Rp4085
ag4
(I160
I2560
I32
I32
tp4086
Rp4087
ag4
(I320
I2560
I32
I32
tp4088
Rp4089
ag4
(I352
I2560
I32
I32
tp4090
Rp4091
ag4
(I384
I2560
I32
I32
tp4092
Rp4093
ag4
(I416
I2560
I32
I32
tp4094
Rp4095
ag4
(I448
I2560
I32
I32
tp4096
Rp4097
ag4
(I512
I2560
I32
I32
tp4098
Rp4099
ag4
(I576
I2560
I32
I32
tp4100
Rp4101
ag4
(I608
I2560
I32
I32
tp4102
Rp4103
ag4
(I640
I2560
I32
I32
tp4104
Rp4105
ag4
(I704
I2560
I32
I32
tp4106
Rp4107
ag4
(I864
I2560
I32
I32
tp4108
Rp4109
ag4
(I896
I2560
I32
I32
tp4110
Rp4111
ag4
(I928
I2560
I32
I32
tp4112
Rp4113
ag4
(I960
I2560
I32
I32
tp4114
Rp4115
ag4
(I2304
I2560
I32
I32
tp4116
Rp4117
ag4
(I2592
I2560
I32
I32
tp4118
Rp4119
ag4
(I2720
I2560
I32
I32
tp4120
Rp4121
ag4
(I2752
I2560
I32
I32
tp4122
Rp4123
ag4
(I3040
I2560
I32
I32
tp4124
Rp4125
ag4
(I3168
I2560
I32
I32
tp4126
Rp4127
ag4
(I32
I2592
I32
I32
tp4128
Rp4129
ag4
(I64
I2592
I32
I32
tp4130
Rp4131
ag4
(I160
I2592
I32
I32
tp4132
Rp4133
ag4
(I192
I2592
I32
I32
tp4134
Rp4135
ag4
(I224
I2592
I32
I32
tp4136
Rp4137
ag4
(I256
I2592
I32
I32
tp4138
Rp4139
ag4
(I288
I2592
I32
I32
tp4140
Rp4141
ag4
(I320
I2592
I32
I32
tp4142
Rp4143
ag4
(I448
I2592
I32
I32
tp4144
Rp4145
ag4
(I480
I2592
I32
I32
tp4146
Rp4147
ag4
(I512
I2592
I32
I32
tp4148
Rp4149
ag4
(I576
I2592
I32
I32
tp4150
Rp4151
ag4
(I640
I2592
I32
I32
tp4152
Rp4153
ag4
(I704
I2592
I32
I32
tp4154
Rp4155
ag4
(I864
I2592
I32
I32
tp4156
Rp4157
ag4
(I960
I2592
I32
I32
tp4158
Rp4159
ag4
(I992
I2592
I32
I32
tp4160
Rp4161
ag4
(I1024
I2592
I32
I32
tp4162
Rp4163
ag4
(I1056
I2592
I32
I32
tp4164
Rp4165
ag4
(I2304
I2592
I32
I32
tp4166
Rp4167
ag4
(I2464
I2592
I32
I32
tp4168
Rp4169
ag4
(I2720
I2592
I32
I32
tp4170
Rp4171
ag4
(I2752
I2592
I32
I32
tp4172
Rp4173
ag4
(I3168
I2592
I32
I32
tp4174
Rp4175
ag4
(I64
I2624
I32
I32
tp4176
Rp4177
ag4
(I96
I2624
I32
I32
tp4178
Rp4179
ag4
(I576
I2624
I32
I32
tp4180
Rp4181
ag4
(I640
I2624
I32
I32
tp4182
Rp4183
ag4
(I864
I2624
I32
I32
tp4184
Rp4185
ag4
(I1056
I2624
I32
I32
tp4186
Rp4187
ag4
(I1088
I2624
I32
I32
tp4188
Rp4189
ag4
(I1120
I2624
I32
I32
tp4190
Rp4191
ag4
(I1152
I2624
I32
I32
tp4192
Rp4193
ag4
(I1472
I2624
I32
I32
tp4194
Rp4195
ag4
(I1504
I2624
I32
I32
tp4196
Rp4197
ag4
(I1536
I2624
I32
I32
tp4198
Rp4199
ag4
(I2304
I2624
I32
I32
tp4200
Rp4201
ag4
(I2720
I2624
I32
I32
tp4202
Rp4203
ag4
(I2752
I2624
I32
I32
tp4204
Rp4205
ag4
(I2944
I2624
I32
I32
tp4206
Rp4207
ag4
(I3168
I2624
I32
I32
tp4208
Rp4209
ag4
(I0
I2656
I32
I32
tp4210
Rp4211
ag4
(I32
I2656
I32
I32
tp4212
Rp4213
ag4
(I64
I2656
I32
I32
tp4214
Rp4215
ag4
(I96
I2656
I32
I32
tp4216
Rp4217
ag4
(I128
I2656
I32
I32
tp4218
Rp4219
ag4
(I160
I2656
I32
I32
tp4220
Rp4221
ag4
(I192
I2656
I32
I32
tp4222
Rp4223
ag4
(I224
I2656
I32
I32
tp4224
Rp4225
ag4
(I256
I2656
I32
I32
tp4226
Rp4227
ag4
(I288
I2656
I32
I32
tp4228
Rp4229
ag4
(I320
I2656
I32
I32
tp4230
Rp4231
ag4
(I352
I2656
I32
I32
tp4232
Rp4233
ag4
(I384
I2656
I32
I32
tp4234
Rp4235
ag4
(I416
I2656
I32
I32
tp4236
Rp4237
ag4
(I448
I2656
I32
I32
tp4238
Rp4239
ag4
(I480
I2656
I32
I32
tp4240
Rp4241
ag4
(I512
I2656
I32
I32
tp4242
Rp4243
ag4
(I544
I2656
I32
I32
tp4244
Rp4245
ag4
(I576
I2656
I32
I32
tp4246
Rp4247
ag4
(I608
I2656
I32
I32
tp4248
Rp4249
ag4
(I640
I2656
I32
I32
tp4250
Rp4251
ag4
(I672
I2656
I32
I32
tp4252
Rp4253
ag4
(I704
I2656
I32
I32
tp4254
Rp4255
ag4
(I864
I2656
I32
I32
tp4256
Rp4257
ag4
(I1152
I2656
I32
I32
tp4258
Rp4259
ag4
(I1184
I2656
I32
I32
tp4260
Rp4261
ag4
(I1216
I2656
I32
I32
tp4262
Rp4263
ag4
(I1248
I2656
I32
I32
tp4264
Rp4265
ag4
(I2304
I2656
I32
I32
tp4266
Rp4267
ag4
(I2720
I2656
I32
I32
tp4268
Rp4269
ag4
(I2752
I2656
I32
I32
tp4270
Rp4271
ag4
(I2816
I2656
I32
I32
tp4272
Rp4273
ag4
(I3168
I2656
I32
I32
tp4274
Rp4275
ag4
(I0
I2688
I32
I32
tp4276
Rp4277
ag4
(I864
I2688
I32
I32
tp4278
Rp4279
ag4
(I1248
I2688
I32
I32
tp4280
Rp4281
ag4
(I1280
I2688
I32
I32
tp4282
Rp4283
ag4
(I1312
I2688
I32
I32
tp4284
Rp4285
ag4
(I1344
I2688
I32
I32
tp4286
Rp4287
ag4
(I2304
I2688
I32
I32
tp4288
Rp4289
ag4
(I2400
I2688
I32
I32
tp4290
Rp4291
ag4
(I2560
I2688
I32
I32
tp4292
Rp4293
ag4
(I2720
I2688
I32
I32
tp4294
Rp4295
ag4
(I2752
I2688
I32
I32
tp4296
Rp4297
ag4
(I3040
I2688
I32
I32
tp4298
Rp4299
ag4
(I3168
I2688
I32
I32
tp4300
Rp4301
ag4
(I0
I2720
I32
I32
tp4302
Rp4303
ag4
(I832
I2720
I32
I32
tp4304
Rp4305
ag4
(I864
I2720
I32
I32
tp4306
Rp4307
ag4
(I1344
I2720
I32
I32
tp4308
Rp4309
ag4
(I1376
I2720
I32
I32
tp4310
Rp4311
ag4
(I1408
I2720
I32
I32
tp4312
Rp4313
ag4
(I1440
I2720
I32
I32
tp4314
Rp4315
ag4
(I2304
I2720
I32
I32
tp4316
Rp4317
ag4
(I2720
I2720
I32
I32
tp4318
Rp4319
ag4
(I2752
I2720
I32
I32
tp4320
Rp4321
ag4
(I3168
I2720
I32
I32
tp4322
Rp4323
ag4
(I0
I2752
I32
I32
tp4324
Rp4325
ag4
(I384
I2752
I32
I32
tp4326
Rp4327
ag4
(I480
I2752
I32
I32
tp4328
Rp4329
ag4
(I800
I2752
I32
I32
tp4330
Rp4331
ag4
(I832
I2752
I32
I32
tp4332
Rp4333
ag4
(I864
I2752
I32
I32
tp4334
Rp4335
ag4
(I1440
I2752
I32
I32
tp4336
Rp4337
ag4
(I1472
I2752
I32
I32
tp4338
Rp4339
ag4
(I1504
I2752
I32
I32
tp4340
Rp4341
ag4
(I1536
I2752
I32
I32
tp4342
Rp4343
ag4
(I2304
I2752
I32
I32
tp4344
Rp4345
ag4
(I2624
I2752
I32
I32
tp4346
Rp4347
ag4
(I2720
I2752
I32
I32
tp4348
Rp4349
ag4
(I2752
I2752
I32
I32
tp4350
Rp4351
ag4
(I2912
I2752
I32
I32
tp4352
Rp4353
ag4
(I3168
I2752
I32
I32
tp4354
Rp4355
ag4
(I0
I2784
I32
I32
tp4356
Rp4357
ag4
(I352
I2784
I32
I32
tp4358
Rp4359
ag4
(I384
I2784
I32
I32
tp4360
Rp4361
ag4
(I480
I2784
I32
I32
tp4362
Rp4363
ag4
(I512
I2784
I32
I32
tp4364
Rp4365
ag4
(I768
I2784
I32
I32
tp4366
Rp4367
ag4
(I800
I2784
I32
I32
tp4368
Rp4369
ag4
(I864
I2784
I32
I32
tp4370
Rp4371
ag4
(I1536
I2784
I32
I32
tp4372
Rp4373
ag4
(I1568
I2784
I32
I32
tp4374
Rp4375
ag4
(I1600
I2784
I32
I32
tp4376
Rp4377
ag4
(I1632
I2784
I32
I32
tp4378
Rp4379
ag4
(I2080
I2784
I32
I32
tp4380
Rp4381
ag4
(I2112
I2784
I32
I32
tp4382
Rp4383
ag4
(I2144
I2784
I32
I32
tp4384
Rp4385
ag4
(I2176
I2784
I32
I32
tp4386
Rp4387
ag4
(I2304
I2784
I32
I32
tp4388
Rp4389
ag4
(I2496
I2784
I32
I32
tp4390
Rp4391
ag4
(I2720
I2784
I32
I32
tp4392
Rp4393
ag4
(I2752
I2784
I32
I32
tp4394
Rp4395
ag4
(I2848
I2784
I32
I32
tp4396
Rp4397
ag4
(I3168
I2784
I32
I32
tp4398
Rp4399
ag4
(I0
I2816
I32
I32
tp4400
Rp4401
ag4
(I160
I2816
I32
I32
tp4402
Rp4403
ag4
(I192
I2816
I32
I32
tp4404
Rp4405
ag4
(I224
I2816
I32
I32
tp4406
Rp4407
ag4
(I256
I2816
I32
I32
tp4408
Rp4409
ag4
(I288
I2816
I32
I32
tp4410
Rp4411
ag4
(I320
I2816
I32
I32
tp4412
Rp4413
ag4
(I352
I2816
I32
I32
tp4414
Rp4415
ag4
(I384
I2816
I32
I32
tp4416
Rp4417
ag4
(I416
I2816
I32
I32
tp4418
Rp4419
ag4
(I448
I2816
I32
I32
tp4420
Rp4421
ag4
(I480
I2816
I32
I32
tp4422
Rp4423
ag4
(I512
I2816
I32
I32
tp4424
Rp4425
ag4
(I544
I2816
I32
I32
tp4426
Rp4427
ag4
(I576
I2816
I32
I32
tp4428
Rp4429
ag4
(I608
I2816
I32
I32
tp4430
Rp4431
ag4
(I640
I2816
I32
I32
tp4432
Rp4433
ag4
(I672
I2816
I32
I32
tp4434
Rp4435
ag4
(I704
I2816
I32
I32
tp4436
Rp4437
ag4
(I736
I2816
I32
I32
tp4438
Rp4439
ag4
(I768
I2816
I32
I32
tp4440
Rp4441
ag4
(I800
I2816
I32
I32
tp4442
Rp4443
ag4
(I832
I2816
I32
I32
tp4444
Rp4445
ag4
(I864
I2816
I32
I32
tp4446
Rp4447
ag4
(I1632
I2816
I32
I32
tp4448
Rp4449
ag4
(I1664
I2816
I32
I32
tp4450
Rp4451
ag4
(I1696
I2816
I32
I32
tp4452
Rp4453
ag4
(I1728
I2816
I32
I32
tp4454
Rp4455
ag4
(I2304
I2816
I32
I32
tp4456
Rp4457
ag4
(I2336
I2816
I32
I32
tp4458
Rp4459
ag4
(I2720
I2816
I32
I32
tp4460
Rp4461
ag4
(I2752
I2816
I32
I32
tp4462
Rp4463
ag4
(I3104
I2816
I32
I32
tp4464
Rp4465
ag4
(I3168
I2816
I32
I32
tp4466
Rp4467
ag4
(I0
I2848
I32
I32
tp4468
Rp4469
ag4
(I32
I2848
I32
I32
tp4470
Rp4471
ag4
(I864
I2848
I32
I32
tp4472
Rp4473
ag4
(I1728
I2848
I32
I32
tp4474
Rp4475
ag4
(I1760
I2848
I32
I32
tp4476
Rp4477
ag4
(I1792
I2848
I32
I32
tp4478
Rp4479
ag4
(I1824
I2848
I32
I32
tp4480
Rp4481
ag4
(I2304
I2848
I32
I32
tp4482
Rp4483
ag4
(I2720
I2848
I32
I32
tp4484
Rp4485
ag4
(I2752
I2848
I32
I32
tp4486
Rp4487
ag4
(I2784
I2848
I32
I32
tp4488
Rp4489
ag4
(I2976
I2848
I32
I32
tp4490
Rp4491
ag4
(I3168
I2848
I32
I32
tp4492
Rp4493
ag4
(I32
I2880
I32
I32
tp4494
Rp4495
ag4
(I64
I2880
I32
I32
tp4496
Rp4497
ag4
(I288
I2880
I32
I32
tp4498
Rp4499
ag4
(I448
I2880
I32
I32
tp4500
Rp4501
ag4
(I608
I2880
I32
I32
tp4502
Rp4503
ag4
(I864
I2880
I32
I32
tp4504
Rp4505
ag4
(I1824
I2880
I32
I32
tp4506
Rp4507
ag4
(I1856
I2880
I32
I32
tp4508
Rp4509
ag4
(I1888
I2880
I32
I32
tp4510
Rp4511
ag4
(I1920
I2880
I32
I32
tp4512
Rp4513
ag4
(I2240
I2880
I32
I32
tp4514
Rp4515
ag4
(I2272
I2880
I32
I32
tp4516
Rp4517
ag4
(I2304
I2880
I32
I32
tp4518
Rp4519
ag4
(I2432
I2880
I32
I32
tp4520
Rp4521
ag4
(I2720
I2880
I32
I32
tp4522
Rp4523
ag4
(I2752
I2880
I32
I32
tp4524
Rp4525
ag4
(I3168
I2880
I32
I32
tp4526
Rp4527
ag4
(I64
I2912
I32
I32
tp4528
Rp4529
ag4
(I96
I2912
I32
I32
tp4530
Rp4531
ag4
(I288
I2912
I32
I32
tp4532
Rp4533
ag4
(I320
I2912
I32
I32
tp4534
Rp4535
ag4
(I448
I2912
I32
I32
tp4536
Rp4537
ag4
(I480
I2912
I32
I32
tp4538
Rp4539
ag4
(I608
I2912
I32
I32
tp4540
Rp4541
ag4
(I640
I2912
I32
I32
tp4542
Rp4543
ag4
(I864
I2912
I32
I32
tp4544
Rp4545
ag4
(I1920
I2912
I32
I32
tp4546
Rp4547
ag4
(I1952
I2912
I32
I32
tp4548
Rp4549
ag4
(I1984
I2912
I32
I32
tp4550
Rp4551
ag4
(I2016
I2912
I32
I32
tp4552
Rp4553
ag4
(I2304
I2912
I32
I32
tp4554
Rp4555
ag4
(I2720
I2912
I32
I32
tp4556
Rp4557
ag4
(I2752
I2912
I32
I32
tp4558
Rp4559
ag4
(I2784
I2912
I32
I32
tp4560
Rp4561
ag4
(I2816
I2912
I32
I32
tp4562
Rp4563
ag4
(I2848
I2912
I32
I32
tp4564
Rp4565
ag4
(I2880
I2912
I32
I32
tp4566
Rp4567
ag4
(I2912
I2912
I32
I32
tp4568
Rp4569
ag4
(I2944
I2912
I32
I32
tp4570
Rp4571
ag4
(I2976
I2912
I32
I32
tp4572
Rp4573
ag4
(I3008
I2912
I32
I32
tp4574
Rp4575
ag4
(I3040
I2912
I32
I32
tp4576
Rp4577
ag4
(I3072
I2912
I32
I32
tp4578
Rp4579
ag4
(I3104
I2912
I32
I32
tp4580
Rp4581
ag4
(I3136
I2912
I32
I32
tp4582
Rp4583
ag4
(I3168
I2912
I32
I32
tp4584
Rp4585
ag4
(I0
I2944
I32
I32
tp4586
Rp4587
ag4
(I32
I2944
I32
I32
tp4588
Rp4589
ag4
(I64
I2944
I32
I32
tp4590
Rp4591
ag4
(I96
I2944
I32
I32
tp4592
Rp4593
ag4
(I128
I2944
I32
I32
tp4594
Rp4595
ag4
(I160
I2944
I32
I32
tp4596
Rp4597
ag4
(I192
I2944
I32
I32
tp4598
Rp4599
ag4
(I224
I2944
I32
I32
tp4600
Rp4601
ag4
(I256
I2944
I32
I32
tp4602
Rp4603
ag4
(I288
I2944
I32
I32
tp4604
Rp4605
ag4
(I320
I2944
I32
I32
tp4606
Rp4607
ag4
(I352
I2944
I32
I32
tp4608
Rp4609
ag4
(I384
I2944
I32
I32
tp4610
Rp4611
ag4
(I416
I2944
I32
I32
tp4612
Rp4613
ag4
(I448
I2944
I32
I32
tp4614
Rp4615
ag4
(I480
I2944
I32
I32
tp4616
Rp4617
ag4
(I512
I2944
I32
I32
tp4618
Rp4619
ag4
(I544
I2944
I32
I32
tp4620
Rp4621
ag4
(I576
I2944
I32
I32
tp4622
Rp4623
ag4
(I608
I2944
I32
I32
tp4624
Rp4625
ag4
(I640
I2944
I32
I32
tp4626
Rp4627
ag4
(I672
I2944
I32
I32
tp4628
Rp4629
ag4
(I704
I2944
I32
I32
tp4630
Rp4631
ag4
(I736
I2944
I32
I32
tp4632
Rp4633
ag4
(I864
I2944
I32
I32
tp4634
Rp4635
ag4
(I2016
I2944
I32
I32
tp4636
Rp4637
ag4
(I2048
I2944
I32
I32
tp4638
Rp4639
ag4
(I2080
I2944
I32
I32
tp4640
Rp4641
ag4
(I2112
I2944
I32
I32
tp4642
Rp4643
ag4
(I2592
I2944
I32
I32
tp4644
Rp4645
ag4
(I2720
I2944
I32
I32
tp4646
Rp4647
ag4
(I0
I2976
I32
I32
tp4648
Rp4649
ag4
(I864
I2976
I32
I32
tp4650
Rp4651
ag4
(I2112
I2976
I32
I32
tp4652
Rp4653
ag4
(I2144
I2976
I32
I32
tp4654
Rp4655
ag4
(I2176
I2976
I32
I32
tp4656
Rp4657
ag4
(I2208
I2976
I32
I32
tp4658
Rp4659
ag4
(I2720
I2976
I32
I32
tp4660
Rp4661
ag4
(I0
I3008
I32
I32
tp4662
Rp4663
ag4
(I32
I3008
I32
I32
tp4664
Rp4665
ag4
(I64
I3008
I32
I32
tp4666
Rp4667
ag4
(I96
I3008
I32
I32
tp4668
Rp4669
ag4
(I128
I3008
I32
I32
tp4670
Rp4671
ag4
(I160
I3008
I32
I32
tp4672
Rp4673
ag4
(I192
I3008
I32
I32
tp4674
Rp4675
ag4
(I224
I3008
I32
I32
tp4676
Rp4677
ag4
(I256
I3008
I32
I32
tp4678
Rp4679
ag4
(I288
I3008
I32
I32
tp4680
Rp4681
ag4
(I320
I3008
I32
I32
tp4682
Rp4683
ag4
(I352
I3008
I32
I32
tp4684
Rp4685
ag4
(I384
I3008
I32
I32
tp4686
Rp4687
ag4
(I416
I3008
I32
I32
tp4688
Rp4689
ag4
(I448
I3008
I32
I32
tp4690
Rp4691
ag4
(I480
I3008
I32
I32
tp4692
Rp4693
ag4
(I512
I3008
I32
I32
tp4694
Rp4695
ag4
(I544
I3008
I32
I32
tp4696
Rp4697
ag4
(I576
I3008
I32
I32
tp4698
Rp4699
ag4
(I608
I3008
I32
I32
tp4700
Rp4701
ag4
(I640
I3008
I32
I32
tp4702
Rp4703
ag4
(I672
I3008
I32
I32
tp4704
Rp4705
ag4
(I704
I3008
I32
I32
tp4706
Rp4707
ag4
(I736
I3008
I32
I32
tp4708
Rp4709
ag4
(I768
I3008
I32
I32
tp4710
Rp4711
ag4
(I800
I3008
I32
I32
tp4712
Rp4713
ag4
(I832
I3008
I32
I32
tp4714
Rp4715
ag4
(I864
I3008
I32
I32
tp4716
Rp4717
ag4
(I2208
I3008
I32
I32
tp4718
Rp4719
ag4
(I2240
I3008
I32
I32
tp4720
Rp4721
ag4
(I2272
I3008
I32
I32
tp4722
Rp4723
ag4
(I2304
I3008
I32
I32
tp4724
Rp4725
ag4
(I2336
I3008
I32
I32
tp4726
Rp4727
ag4
(I2368
I3008
I32
I32
tp4728
Rp4729
ag4
(I2400
I3008
I32
I32
tp4730
Rp4731
ag4
(I2432
I3008
I32
I32
tp4732
Rp4733
ag4
(I2464
I3008
I32
I32
tp4734
Rp4735
ag4
(I2496
I3008
I32
I32
tp4736
Rp4737
ag4
(I2528
I3008
I32
I32
tp4738
Rp4739
ag4
(I2560
I3008
I32
I32
tp4740
Rp4741
ag4
(I2592
I3008
I32
I32
tp4742
Rp4743
ag4
(I2624
I3008
I32
I32
tp4744
Rp4745
ag4
(I2656
I3008
I32
I32
tp4746
Rp4747
ag4
(I2688
I3008
I32
I32
tp4748
Rp4749
ag4
(I2720
I3008
I32
I32
tp4750
Rp4751
asS'checkpoints'
p4752
(lp4753
g4
(I2336
I256
I32
I32
tp4754
Rp4755
ag4
(I2112
I480
I32
I32
tp4756
Rp4757
ag4
(I1280
I992
I32
I32
tp4758
Rp4759
ag4
(I2688
I1120
I32
I32
tp4760
Rp4761
ag4
(I800
I1440
I32
I32
tp4762
Rp4763
ag4
(I96
I2048
I32
I32
tp4764
Rp4765
ag4
(I1120
I2400
I32
I32
tp4766
Rp4767
ag4
(I2720
I2432
I32
I32
tp4768
Rp4769
ag4
(I2752
I2432
I32
I32
tp4770
Rp4771
asS'hazardSplatters'
p4772
(lp4773
sS'splatters'
p4774
(lp4775
sS'enemies'
p4776
(lp4777
(ienemyModule
Enemy
p4778
(dp4779
S'box'
p4780
g4
(I2560
I480
I32
I32
tp4781
Rp4782
sS'vSpeed'
p4783
I0
sS'enragedAnimTimer'
p4784
I0
sS'curFrame'
p4785
I0
sS'tryJump'
p4786
I00
sS'enragedTimer'
p4787
I0
sS'alive'
p4788
I01
sS'facing'
p4789
S'L'
p4790
sS'frameTimer'
p4791
I0
sS'turnTimer'
p4792
I101
sba(ienemyModule
Enemy
p4793
(dp4794
g4780
g4
(I2752
I1952
I32
I32
tp4795
Rp4796
sg4783
I0
sg4784
I0
sg4785
I0
sg4786
I00
sg4787
I0
sg4788
I01
sg4789
g4790
sg4791
I0
sg4792
I132
sba(ienemyModule
Enemy
p4797
(dp4798
g4780
g4
(I512
I2464
I32
I32
tp4799
Rp4800
sg4783
I0
sg4784
I0
sg4785
I0
sg4786
I00
sg4787
I0
sg4788
I01
sg4789
g4790
sg4791
I0
sg4792
I102
sbasS'size'
p4801
(I3200
I3040
tp4802
sb.