(ilevelModule
Level
p0
(dp1
S'index'
p2
I2
sS'goal'
p3
cpygame
__rect_constructor
p4
(I32
I6176
I32
I32
tp5
Rp6
sS'paintBalls'
p7
(lp8
sS'messages'
p9
(lp10
(S'Day 2'
p11
(I350
I55
tp12
tp13
a(S"I don't have much time"
p14
(I240
I2050
tp15
tp16
a(S'You have to help me'
p17
(I70
I3985
tp18
tp19
a(S"You're going the wrong way"
p20
(I75
I5180
tp21
tp22
asS'hazards'
p23
(lp24
g4
(I512
I352
I32
I32
tp25
Rp26
ag4
(I544
I352
I32
I32
tp27
Rp28
ag4
(I576
I352
I32
I32
tp29
Rp30
ag4
(I576
I640
I32
I32
tp31
Rp32
ag4
(I576
I672
I32
I32
tp33
Rp34
ag4
(I576
I704
I32
I32
tp35
Rp36
ag4
(I128
I1216
I32
I32
tp37
Rp38
ag4
(I128
I1248
I32
I32
tp39
Rp40
ag4
(I128
I1280
I32
I32
tp41
Rp42
ag4
(I256
I1440
I32
I32
tp43
Rp44
ag4
(I288
I1440
I32
I32
tp45
Rp46
ag4
(I320
I1440
I32
I32
tp47
Rp48
ag4
(I352
I1440
I32
I32
tp49
Rp50
ag4
(I576
I1568
I32
I32
tp51
Rp52
ag4
(I576
I1600
I32
I32
tp53
Rp54
ag4
(I576
I1632
I32
I32
tp55
Rp56
ag4
(I576
I1664
I32
I32
tp57
Rp58
ag4
(I32
I2176
I32
I32
tp59
Rp60
ag4
(I64
I2176
I32
I32
tp61
Rp62
ag4
(I96
I2176
I32
I32
tp63
Rp64
ag4
(I256
I2176
I32
I32
tp65
Rp66
ag4
(I288
I2176
I32
I32
tp67
Rp68
ag4
(I320
I2176
I32
I32
tp69
Rp70
ag4
(I352
I2176
I32
I32
tp71
Rp72
ag4
(I384
I2176
I32
I32
tp73
Rp74
ag4
(I416
I2176
I32
I32
tp75
Rp76
ag4
(I448
I2176
I32
I32
tp77
Rp78
ag4
(I32
I2816
I32
I32
tp79
Rp80
ag4
(I64
I2816
I32
I32
tp81
Rp82
ag4
(I32
I2944
I32
I32
tp83
Rp84
ag4
(I576
I2944
I32
I32
tp85
Rp86
ag4
(I32
I2976
I32
I32
tp87
Rp88
ag4
(I576
I2976
I32
I32
tp89
Rp90
ag4
(I32
I3008
I32
I32
tp91
Rp92
ag4
(I576
I3008
I32
I32
tp93
Rp94
ag4
(I32
I3040
I32
I32
tp95
Rp96
ag4
(I576
I3040
I32
I32
tp97
Rp98
ag4
(I32
I3072
I32
I32
tp99
Rp100
ag4
(I576
I3072
I32
I32
tp101
Rp102
ag4
(I32
I3104
I32
I32
tp103
Rp104
ag4
(I576
I3104
I32
I32
tp105
Rp106
ag4
(I32
I3136
I32
I32
tp107
Rp108
ag4
(I576
I3136
I32
I32
tp109
Rp110
ag4
(I32
I3680
I32
I32
tp111
Rp112
ag4
(I256
I4128
I32
I32
tp113
Rp114
ag4
(I288
I4128
I32
I32
tp115
Rp116
ag4
(I576
I4224
I32
I32
tp117
Rp118
ag4
(I576
I4256
I32
I32
tp119
Rp120
ag4
(I576
I4288
I32
I32
tp121
Rp122
ag4
(I576
I4320
I32
I32
tp123
Rp124
ag4
(I576
I4352
I32
I32
tp125
Rp126
ag4
(I576
I4384
I32
I32
tp127
Rp128
ag4
(I576
I4416
I32
I32
tp129
Rp130
ag4
(I320
I4480
I32
I32
tp131
Rp132
ag4
(I352
I4480
I32
I32
tp133
Rp134
ag4
(I384
I4480
I32
I32
tp135
Rp136
ag4
(I416
I5280
I32
I32
tp137
Rp138
ag4
(I448
I5280
I32
I32
tp139
Rp140
ag4
(I192
I6176
I32
I32
tp141
Rp142
asS'hazardRotations'
p143
(lp144
I0
aI0
aI0
aI1
aI1
aI1
aI1
aI1
aI1
aI0
aI0
aI0
aI0
aI1
aI1
aI1
aI1
aI0
aI0
aI0
aI0
aI0
aI0
aI0
aI0
aI0
aI0
aI0
aI0
aI3
aI1
aI3
aI1
aI3
aI1
aI3
aI1
aI3
aI1
aI3
aI1
aI3
aI1
aI0
aI0
aI0
aI1
aI1
aI1
aI1
aI1
aI1
aI1
aI0
aI0
aI0
aI0
aI0
aI0
asS'playerStart'
p145
(I32
I32
tp146
sS'offsetStart'
p147
(I0
I0
tp148
sS'walls'
p149
(lp150
g4
(I0
I0
I32
I32
tp151
Rp152
ag4
(I32
I0
I32
I32
tp153
Rp154
ag4
(I64
I0
I32
I32
tp155
Rp156
ag4
(I96
I0
I32
I32
tp157
Rp158
ag4
(I128
I0
I32
I32
tp159
Rp160
ag4
(I160
I0
I32
I32
tp161
Rp162
ag4
(I192
I0
I32
I32
tp163
Rp164
ag4
(I224
I0
I32
I32
tp165
Rp166
ag4
(I256
I0
I32
I32
tp167
Rp168
ag4
(I288
I0
I32
I32
tp169
Rp170
ag4
(I320
I0
I32
I32
tp171
Rp172
ag4
(I352
I0
I32
I32
tp173
Rp174
ag4
(I384
I0
I32
I32
tp175
Rp176
ag4
(I416
I0
I32
I32
tp177
Rp178
ag4
(I448
I0
I32
I32
tp179
Rp180
ag4
(I480
I0
I32
I32
tp181
Rp182
ag4
(I512
I0
I32
I32
tp183
Rp184
ag4
(I544
I0
I32
I32
tp185
Rp186
ag4
(I576
I0
I32
I32
tp187
Rp188
ag4
(I608
I0
I32
I32
tp189
Rp190
ag4
(I0
I32
I32
I32
tp191
Rp192
ag4
(I608
I32
I32
I32
tp193
Rp194
ag4
(I0
I64
I32
I32
tp195
Rp196
ag4
(I32
I64
I32
I32
tp197
Rp198
ag4
(I64
I64
I32
I32
tp199
Rp200
ag4
(I96
I64
I32
I32
tp201
Rp202
ag4
(I128
I64
I32
I32
tp203
Rp204
ag4
(I160
I64
I32
I32
tp205
Rp206
ag4
(I608
I64
I32
I32
tp207
Rp208
ag4
(I0
I96
I32
I32
tp209
Rp210
ag4
(I608
I96
I32
I32
tp211
Rp212
ag4
(I0
I128
I32
I32
tp213
Rp214
ag4
(I256
I128
I32
I32
tp215
Rp216
ag4
(I288
I128
I32
I32
tp217
Rp218
ag4
(I320
I128
I32
I32
tp219
Rp220
ag4
(I352
I128
I32
I32
tp221
Rp222
ag4
(I384
I128
I32
I32
tp223
Rp224
ag4
(I608
I128
I32
I32
tp225
Rp226
ag4
(I0
I160
I32
I32
tp227
Rp228
ag4
(I608
I160
I32
I32
tp229
Rp230
ag4
(I0
I192
I32
I32
tp231
Rp232
ag4
(I480
I192
I32
I32
tp233
Rp234
ag4
(I512
I192
I32
I32
tp235
Rp236
ag4
(I544
I192
I32
I32
tp237
Rp238
ag4
(I576
I192
I32
I32
tp239
Rp240
ag4
(I608
I192
I32
I32
tp241
Rp242
ag4
(I0
I224
I32
I32
tp243
Rp244
ag4
(I32
I224
I32
I32
tp245
Rp246
ag4
(I64
I224
I32
I32
tp247
Rp248
ag4
(I96
I224
I32
I32
tp249
Rp250
ag4
(I128
I224
I32
I32
tp251
Rp252
ag4
(I160
I224
I32
I32
tp253
Rp254
ag4
(I608
I224
I32
I32
tp255
Rp256
ag4
(I160
I256
I32
I32
tp257
Rp258
ag4
(I192
I256
I32
I32
tp259
Rp260
ag4
(I224
I256
I32
I32
tp261
Rp262
ag4
(I256
I256
I32
I32
tp263
Rp264
ag4
(I288
I256
I32
I32
tp265
Rp266
ag4
(I320
I256
I32
I32
tp267
Rp268
ag4
(I608
I256
I32
I32
tp269
Rp270
ag4
(I160
I288
I32
I32
tp271
Rp272
ag4
(I608
I288
I32
I32
tp273
Rp274
ag4
(I160
I320
I32
I32
tp275
Rp276
ag4
(I320
I320
I32
I32
tp277
Rp278
ag4
(I352
I320
I32
I32
tp279
Rp280
ag4
(I384
I320
I32
I32
tp281
Rp282
ag4
(I416
I320
I32
I32
tp283
Rp284
ag4
(I608
I320
I32
I32
tp285
Rp286
ag4
(I160
I352
I32
I32
tp287
Rp288
ag4
(I608
I352
I32
I32
tp289
Rp290
ag4
(I160
I384
I32
I32
tp291
Rp292
ag4
(I192
I384
I32
I32
tp293
Rp294
ag4
(I224
I384
I32
I32
tp295
Rp296
ag4
(I256
I384
I32
I32
tp297
Rp298
ag4
(I512
I384
I32
I32
tp299
Rp300
ag4
(I544
I384
I32
I32
tp301
Rp302
ag4
(I576
I384
I32
I32
tp303
Rp304
ag4
(I608
I384
I32
I32
tp305
Rp306
ag4
(I0
I416
I32
I32
tp307
Rp308
ag4
(I32
I416
I32
I32
tp309
Rp310
ag4
(I64
I416
I32
I32
tp311
Rp312
ag4
(I96
I416
I32
I32
tp313
Rp314
ag4
(I128
I416
I32
I32
tp315
Rp316
ag4
(I160
I416
I32
I32
tp317
Rp318
ag4
(I608
I416
I32
I32
tp319
Rp320
ag4
(I0
I448
I32
I32
tp321
Rp322
ag4
(I320
I448
I32
I32
tp323
Rp324
ag4
(I352
I448
I32
I32
tp325
Rp326
ag4
(I384
I448
I32
I32
tp327
Rp328
ag4
(I608
I448
I32
I32
tp329
Rp330
ag4
(I0
I480
I32
I32
tp331
Rp332
ag4
(I608
I480
I32
I32
tp333
Rp334
ag4
(I0
I512
I32
I32
tp335
Rp336
ag4
(I32
I512
I32
I32
tp337
Rp338
ag4
(I64
I512
I32
I32
tp339
Rp340
ag4
(I96
I512
I32
I32
tp341
Rp342
ag4
(I128
I512
I32
I32
tp343
Rp344
ag4
(I160
I512
I32
I32
tp345
Rp346
ag4
(I608
I512
I32
I32
tp347
Rp348
ag4
(I0
I544
I32
I32
tp349
Rp350
ag4
(I608
I544
I32
I32
tp351
Rp352
ag4
(I0
I576
I32
I32
tp353
Rp354
ag4
(I608
I576
I32
I32
tp355
Rp356
ag4
(I0
I608
I32
I32
tp357
Rp358
ag4
(I224
I608
I32
I32
tp359
Rp360
ag4
(I256
I608
I32
I32
tp361
Rp362
ag4
(I288
I608
I32
I32
tp363
Rp364
ag4
(I320
I608
I32
I32
tp365
Rp366
ag4
(I352
I608
I32
I32
tp367
Rp368
ag4
(I608
I608
I32
I32
tp369
Rp370
ag4
(I0
I640
I32
I32
tp371
Rp372
ag4
(I608
I640
I32
I32
tp373
Rp374
ag4
(I0
I672
I32
I32
tp375
Rp376
ag4
(I608
I672
I32
I32
tp377
Rp378
ag4
(I0
I704
I32
I32
tp379
Rp380
ag4
(I608
I704
I32
I32
tp381
Rp382
ag4
(I0
I736
I32
I32
tp383
Rp384
ag4
(I384
I736
I32
I32
tp385
Rp386
ag4
(I416
I736
I32
I32
tp387
Rp388
ag4
(I448
I736
I32
I32
tp389
Rp390
ag4
(I480
I736
I32
I32
tp391
Rp392
ag4
(I512
I736
I32
I32
tp393
Rp394
ag4
(I544
I736
I32
I32
tp395
Rp396
ag4
(I576
I736
I32
I32
tp397
Rp398
ag4
(I608
I736
I32
I32
tp399
Rp400
ag4
(I0
I768
I32
I32
tp401
Rp402
ag4
(I608
I768
I32
I32
tp403
Rp404
ag4
(I0
I800
I32
I32
tp405
Rp406
ag4
(I256
I800
I32
I32
tp407
Rp408
ag4
(I288
I800
I32
I32
tp409
Rp410
ag4
(I320
I800
I32
I32
tp411
Rp412
ag4
(I608
I800
I32
I32
tp413
Rp414
ag4
(I0
I832
I32
I32
tp415
Rp416
ag4
(I32
I832
I32
I32
tp417
Rp418
ag4
(I64
I832
I32
I32
tp419
Rp420
ag4
(I96
I832
I32
I32
tp421
Rp422
ag4
(I128
I832
I32
I32
tp423
Rp424
ag4
(I160
I832
I32
I32
tp425
Rp426
ag4
(I608
I832
I32
I32
tp427
Rp428
ag4
(I0
I864
I32
I32
tp429
Rp430
ag4
(I608
I864
I32
I32
tp431
Rp432
ag4
(I0
I896
I32
I32
tp433
Rp434
ag4
(I352
I896
I32
I32
tp435
Rp436
ag4
(I384
I896
I32
I32
tp437
Rp438
ag4
(I416
I896
I32
I32
tp439
Rp440
ag4
(I448
I896
I32
I32
tp441
Rp442
ag4
(I480
I896
I32
I32
tp443
Rp444
ag4
(I512
I896
I32
I32
tp445
Rp446
ag4
(I544
I896
I32
I32
tp447
Rp448
ag4
(I576
I896
I32
I32
tp449
Rp450
ag4
(I608
I896
I32
I32
tp451
Rp452
ag4
(I0
I928
I32
I32
tp453
Rp454
ag4
(I352
I928
I32
I32
tp455
Rp456
ag4
(I384
I928
I32
I32
tp457
Rp458
ag4
(I416
I928
I32
I32
tp459
Rp460
ag4
(I448
I928
I32
I32
tp461
Rp462
ag4
(I480
I928
I32
I32
tp463
Rp464
ag4
(I512
I928
I32
I32
tp465
Rp466
ag4
(I544
I928
I32
I32
tp467
Rp468
ag4
(I576
I928
I32
I32
tp469
Rp470
ag4
(I608
I928
I32
I32
tp471
Rp472
ag4
(I0
I960
I32
I32
tp473
Rp474
ag4
(I608
I960
I32
I32
tp475
Rp476
ag4
(I0
I992
I32
I32
tp477
Rp478
ag4
(I608
I992
I32
I32
tp479
Rp480
ag4
(I0
I1024
I32
I32
tp481
Rp482
ag4
(I608
I1024
I32
I32
tp483
Rp484
ag4
(I0
I1056
I32
I32
tp485
Rp486
ag4
(I32
I1056
I32
I32
tp487
Rp488
ag4
(I64
I1056
I32
I32
tp489
Rp490
ag4
(I96
I1056
I32
I32
tp491
Rp492
ag4
(I128
I1056
I32
I32
tp493
Rp494
ag4
(I160
I1056
I32
I32
tp495
Rp496
ag4
(I192
I1056
I32
I32
tp497
Rp498
ag4
(I224
I1056
I32
I32
tp499
Rp500
ag4
(I256
I1056
I32
I32
tp501
Rp502
ag4
(I288
I1056
I32
I32
tp503
Rp504
ag4
(I320
I1056
I32
I32
tp505
Rp506
ag4
(I352
I1056
I32
I32
tp507
Rp508
ag4
(I384
I1056
I32
I32
tp509
Rp510
ag4
(I416
I1056
I32
I32
tp511
Rp512
ag4
(I448
I1056
I32
I32
tp513
Rp514
ag4
(I480
I1056
I32
I32
tp515
Rp516
ag4
(I512
I1056
I32
I32
tp517
Rp518
ag4
(I608
I1056
I32
I32
tp519
Rp520
ag4
(I0
I1088
I32
I32
tp521
Rp522
ag4
(I32
I1088
I32
I32
tp523
Rp524
ag4
(I64
I1088
I32
I32
tp525
Rp526
ag4
(I96
I1088
I32
I32
tp527
Rp528
ag4
(I128
I1088
I32
I32
tp529
Rp530
ag4
(I160
I1088
I32
I32
tp531
Rp532
ag4
(I192
I1088
I32
I32
tp533
Rp534
ag4
(I224
I1088
I32
I32
tp535
Rp536
ag4
(I256
I1088
I32
I32
tp537
Rp538
ag4
(I288
I1088
I32
I32
tp539
Rp540
ag4
(I320
I1088
I32
I32
tp541
Rp542
ag4
(I352
I1088
I32
I32
tp543
Rp544
ag4
(I384
I1088
I32
I32
tp545
Rp546
ag4
(I416
I1088
I32
I32
tp547
Rp548
ag4
(I448
I1088
I32
I32
tp549
Rp550
ag4
(I480
I1088
I32
I32
tp551
Rp552
ag4
(I512
I1088
I32
I32
tp553
Rp554
ag4
(I608
I1088
I32
I32
tp555
Rp556
ag4
(I0
I1120
I32
I32
tp557
Rp558
ag4
(I608
I1120
I32
I32
tp559
Rp560
ag4
(I0
I1152
I32
I32
tp561
Rp562
ag4
(I608
I1152
I32
I32
tp563
Rp564
ag4
(I0
I1184
I32
I32
tp565
Rp566
ag4
(I608
I1184
I32
I32
tp567
Rp568
ag4
(I0
I1216
I32
I32
tp569
Rp570
ag4
(I160
I1216
I32
I32
tp571
Rp572
ag4
(I192
I1216
I32
I32
tp573
Rp574
ag4
(I224
I1216
I32
I32
tp575
Rp576
ag4
(I256
I1216
I32
I32
tp577
Rp578
ag4
(I288
I1216
I32
I32
tp579
Rp580
ag4
(I320
I1216
I32
I32
tp581
Rp582
ag4
(I352
I1216
I32
I32
tp583
Rp584
ag4
(I384
I1216
I32
I32
tp585
Rp586
ag4
(I416
I1216
I32
I32
tp587
Rp588
ag4
(I448
I1216
I32
I32
tp589
Rp590
ag4
(I480
I1216
I32
I32
tp591
Rp592
ag4
(I512
I1216
I32
I32
tp593
Rp594
ag4
(I544
I1216
I32
I32
tp595
Rp596
ag4
(I576
I1216
I32
I32
tp597
Rp598
ag4
(I608
I1216
I32
I32
tp599
Rp600
ag4
(I0
I1248
I32
I32
tp601
Rp602
ag4
(I160
I1248
I32
I32
tp603
Rp604
ag4
(I0
I1280
I32
I32
tp605
Rp606
ag4
(I32
I1280
I32
I32
tp607
Rp608
ag4
(I160
I1280
I32
I32
tp609
Rp610
ag4
(I192
I1280
I32
I32
tp611
Rp612
ag4
(I224
I1280
I32
I32
tp613
Rp614
ag4
(I256
I1280
I32
I32
tp615
Rp616
ag4
(I288
I1280
I32
I32
tp617
Rp618
ag4
(I320
I1280
I32
I32
tp619
Rp620
ag4
(I352
I1280
I32
I32
tp621
Rp622
ag4
(I384
I1280
I32
I32
tp623
Rp624
ag4
(I416
I1280
I32
I32
tp625
Rp626
ag4
(I448
I1280
I32
I32
tp627
Rp628
ag4
(I480
I1280
I32
I32
tp629
Rp630
ag4
(I512
I1280
I32
I32
tp631
Rp632
ag4
(I544
I1280
I32
I32
tp633
Rp634
ag4
(I576
I1280
I32
I32
tp635
Rp636
ag4
(I608
I1280
I32
I32
tp637
Rp638
ag4
(I0
I1312
I32
I32
tp639
Rp640
ag4
(I608
I1312
I32
I32
tp641
Rp642
ag4
(I0
I1344
I32
I32
tp643
Rp644
ag4
(I608
I1344
I32
I32
tp645
Rp646
ag4
(I0
I1376
I32
I32
tp647
Rp648
ag4
(I608
I1376
I32
I32
tp649
Rp650
ag4
(I0
I1408
I32
I32
tp651
Rp652
ag4
(I608
I1408
I32
I32
tp653
Rp654
ag4
(I0
I1440
I32
I32
tp655
Rp656
ag4
(I32
I1440
I32
I32
tp657
Rp658
ag4
(I64
I1440
I32
I32
tp659
Rp660
ag4
(I96
I1440
I32
I32
tp661
Rp662
ag4
(I128
I1440
I32
I32
tp663
Rp664
ag4
(I160
I1440
I32
I32
tp665
Rp666
ag4
(I192
I1440
I32
I32
tp667
Rp668
ag4
(I224
I1440
I32
I32
tp669
Rp670
ag4
(I384
I1440
I32
I32
tp671
Rp672
ag4
(I416
I1440
I32
I32
tp673
Rp674
ag4
(I448
I1440
I32
I32
tp675
Rp676
ag4
(I608
I1440
I32
I32
tp677
Rp678
ag4
(I0
I1472
I32
I32
tp679
Rp680
ag4
(I32
I1472
I32
I32
tp681
Rp682
ag4
(I64
I1472
I32
I32
tp683
Rp684
ag4
(I96
I1472
I32
I32
tp685
Rp686
ag4
(I128
I1472
I32
I32
tp687
Rp688
ag4
(I160
I1472
I32
I32
tp689
Rp690
ag4
(I192
I1472
I32
I32
tp691
Rp692
ag4
(I224
I1472
I32
I32
tp693
Rp694
ag4
(I256
I1472
I32
I32
tp695
Rp696
ag4
(I288
I1472
I32
I32
tp697
Rp698
ag4
(I320
I1472
I32
I32
tp699
Rp700
ag4
(I352
I1472
I32
I32
tp701
Rp702
ag4
(I384
I1472
I32
I32
tp703
Rp704
ag4
(I608
I1472
I32
I32
tp705
Rp706
ag4
(I0
I1504
I32
I32
tp707
Rp708
ag4
(I608
I1504
I32
I32
tp709
Rp710
ag4
(I0
I1536
I32
I32
tp711
Rp712
ag4
(I480
I1536
I32
I32
tp713
Rp714
ag4
(I512
I1536
I32
I32
tp715
Rp716
ag4
(I544
I1536
I32
I32
tp717
Rp718
ag4
(I576
I1536
I32
I32
tp719
Rp720
ag4
(I608
I1536
I32
I32
tp721
Rp722
ag4
(I0
I1568
I32
I32
tp723
Rp724
ag4
(I608
I1568
I32
I32
tp725
Rp726
ag4
(I0
I1600
I32
I32
tp727
Rp728
ag4
(I32
I1600
I32
I32
tp729
Rp730
ag4
(I64
I1600
I32
I32
tp731
Rp732
ag4
(I96
I1600
I32
I32
tp733
Rp734
ag4
(I128
I1600
I32
I32
tp735
Rp736
ag4
(I160
I1600
I32
I32
tp737
Rp738
ag4
(I192
I1600
I32
I32
tp739
Rp740
ag4
(I224
I1600
I32
I32
tp741
Rp742
ag4
(I256
I1600
I32
I32
tp743
Rp744
ag4
(I288
I1600
I32
I32
tp745
Rp746
ag4
(I320
I1600
I32
I32
tp747
Rp748
ag4
(I352
I1600
I32
I32
tp749
Rp750
ag4
(I384
I1600
I32
I32
tp751
Rp752
ag4
(I608
I1600
I32
I32
tp753
Rp754
ag4
(I0
I1632
I32
I32
tp755
Rp756
ag4
(I608
I1632
I32
I32
tp757
Rp758
ag4
(I0
I1664
I32
I32
tp759
Rp760
ag4
(I608
I1664
I32
I32
tp761
Rp762
ag4
(I0
I1696
I32
I32
tp763
Rp764
ag4
(I32
I1696
I32
I32
tp765
Rp766
ag4
(I64
I1696
I32
I32
tp767
Rp768
ag4
(I96
I1696
I32
I32
tp769
Rp770
ag4
(I128
I1696
I32
I32
tp771
Rp772
ag4
(I160
I1696
I32
I32
tp773
Rp774
ag4
(I192
I1696
I32
I32
tp775
Rp776
ag4
(I224
I1696
I32
I32
tp777
Rp778
ag4
(I256
I1696
I32
I32
tp779
Rp780
ag4
(I288
I1696
I32
I32
tp781
Rp782
ag4
(I320
I1696
I32
I32
tp783
Rp784
ag4
(I512
I1696
I32
I32
tp785
Rp786
ag4
(I544
I1696
I32
I32
tp787
Rp788
ag4
(I576
I1696
I32
I32
tp789
Rp790
ag4
(I608
I1696
I32
I32
tp791
Rp792
ag4
(I0
I1728
I32
I32
tp793
Rp794
ag4
(I320
I1728
I32
I32
tp795
Rp796
ag4
(I352
I1728
I32
I32
tp797
Rp798
ag4
(I544
I1728
I32
I32
tp799
Rp800
ag4
(I576
I1728
I32
I32
tp801
Rp802
ag4
(I608
I1728
I32
I32
tp803
Rp804
ag4
(I0
I1760
I32
I32
tp805
Rp806
ag4
(I320
I1760
I32
I32
tp807
Rp808
ag4
(I352
I1760
I32
I32
tp809
Rp810
ag4
(I384
I1760
I32
I32
tp811
Rp812
ag4
(I576
I1760
I32
I32
tp813
Rp814
ag4
(I608
I1760
I32
I32
tp815
Rp816
ag4
(I0
I1792
I32
I32
tp817
Rp818
ag4
(I160
I1792
I32
I32
tp819
Rp820
ag4
(I320
I1792
I32
I32
tp821
Rp822
ag4
(I384
I1792
I32
I32
tp823
Rp824
ag4
(I416
I1792
I32
I32
tp825
Rp826
ag4
(I608
I1792
I32
I32
tp827
Rp828
ag4
(I0
I1824
I32
I32
tp829
Rp830
ag4
(I160
I1824
I32
I32
tp831
Rp832
ag4
(I256
I1824
I32
I32
tp833
Rp834
ag4
(I288
I1824
I32
I32
tp835
Rp836
ag4
(I320
I1824
I32
I32
tp837
Rp838
ag4
(I416
I1824
I32
I32
tp839
Rp840
ag4
(I448
I1824
I32
I32
tp841
Rp842
ag4
(I608
I1824
I32
I32
tp843
Rp844
ag4
(I0
I1856
I32
I32
tp845
Rp846
ag4
(I32
I1856
I32
I32
tp847
Rp848
ag4
(I160
I1856
I32
I32
tp849
Rp850
ag4
(I320
I1856
I32
I32
tp851
Rp852
ag4
(I448
I1856
I32
I32
tp853
Rp854
ag4
(I544
I1856
I32
I32
tp855
Rp856
ag4
(I576
I1856
I32
I32
tp857
Rp858
ag4
(I608
I1856
I32
I32
tp859
Rp860
ag4
(I0
I1888
I32
I32
tp861
Rp862
ag4
(I160
I1888
I32
I32
tp863
Rp864
ag4
(I192
I1888
I32
I32
tp865
Rp866
ag4
(I320
I1888
I32
I32
tp867
Rp868
ag4
(I352
I1888
I32
I32
tp869
Rp870
ag4
(I384
I1888
I32
I32
tp871
Rp872
ag4
(I416
I1888
I32
I32
tp873
Rp874
ag4
(I448
I1888
I32
I32
tp875
Rp876
ag4
(I608
I1888
I32
I32
tp877
Rp878
ag4
(I0
I1920
I32
I32
tp879
Rp880
ag4
(I128
I1920
I32
I32
tp881
Rp882
ag4
(I160
I1920
I32
I32
tp883
Rp884
ag4
(I608
I1920
I32
I32
tp885
Rp886
ag4
(I0
I1952
I32
I32
tp887
Rp888
ag4
(I160
I1952
I32
I32
tp889
Rp890
ag4
(I608
I1952
I32
I32
tp891
Rp892
ag4
(I0
I1984
I32
I32
tp893
Rp894
ag4
(I160
I1984
I32
I32
tp895
Rp896
ag4
(I192
I1984
I32
I32
tp897
Rp898
ag4
(I224
I1984
I32
I32
tp899
Rp900
ag4
(I256
I1984
I32
I32
tp901
Rp902
ag4
(I288
I1984
I32
I32
tp903
Rp904
ag4
(I320
I1984
I32
I32
tp905
Rp906
ag4
(I352
I1984
I32
I32
tp907
Rp908
ag4
(I384
I1984
I32
I32
tp909
Rp910
ag4
(I416
I1984
I32
I32
tp911
Rp912
ag4
(I448
I1984
I32
I32
tp913
Rp914
ag4
(I480
I1984
I32
I32
tp915
Rp916
ag4
(I512
I1984
I32
I32
tp917
Rp918
ag4
(I544
I1984
I32
I32
tp919
Rp920
ag4
(I576
I1984
I32
I32
tp921
Rp922
ag4
(I608
I1984
I32
I32
tp923
Rp924
ag4
(I0
I2016
I32
I32
tp925
Rp926
ag4
(I32
I2016
I32
I32
tp927
Rp928
ag4
(I64
I2016
I32
I32
tp929
Rp930
ag4
(I608
I2016
I32
I32
tp931
Rp932
ag4
(I0
I2048
I32
I32
tp933
Rp934
ag4
(I32
I2048
I32
I32
tp935
Rp936
ag4
(I64
I2048
I32
I32
tp937
Rp938
ag4
(I96
I2048
I32
I32
tp939
Rp940
ag4
(I608
I2048
I32
I32
tp941
Rp942
ag4
(I0
I2080
I32
I32
tp943
Rp944
ag4
(I608
I2080
I32
I32
tp945
Rp946
ag4
(I0
I2112
I32
I32
tp947
Rp948
ag4
(I288
I2112
I32
I32
tp949
Rp950
ag4
(I320
I2112
I32
I32
tp951
Rp952
ag4
(I352
I2112
I32
I32
tp953
Rp954
ag4
(I384
I2112
I32
I32
tp955
Rp956
ag4
(I480
I2112
I32
I32
tp957
Rp958
ag4
(I608
I2112
I32
I32
tp959
Rp960
ag4
(I0
I2144
I32
I32
tp961
Rp962
ag4
(I128
I2144
I32
I32
tp963
Rp964
ag4
(I160
I2144
I32
I32
tp965
Rp966
ag4
(I192
I2144
I32
I32
tp967
Rp968
ag4
(I224
I2144
I32
I32
tp969
Rp970
ag4
(I480
I2144
I32
I32
tp971
Rp972
ag4
(I608
I2144
I32
I32
tp973
Rp974
ag4
(I0
I2176
I32
I32
tp975
Rp976
ag4
(I128
I2176
I32
I32
tp977
Rp978
ag4
(I224
I2176
I32
I32
tp979
Rp980
ag4
(I480
I2176
I32
I32
tp981
Rp982
ag4
(I576
I2176
I32
I32
tp983
Rp984
ag4
(I608
I2176
I32
I32
tp985
Rp986
ag4
(I0
I2208
I32
I32
tp987
Rp988
ag4
(I32
I2208
I32
I32
tp989
Rp990
ag4
(I64
I2208
I32
I32
tp991
Rp992
ag4
(I96
I2208
I32
I32
tp993
Rp994
ag4
(I128
I2208
I32
I32
tp995
Rp996
ag4
(I160
I2208
I32
I32
tp997
Rp998
ag4
(I192
I2208
I32
I32
tp999
Rp1000
ag4
(I224
I2208
I32
I32
tp1001
Rp1002
ag4
(I256
I2208
I32
I32
tp1003
Rp1004
ag4
(I288
I2208
I32
I32
tp1005
Rp1006
ag4
(I320
I2208
I32
I32
tp1007
Rp1008
ag4
(I352
I2208
I32
I32
tp1009
Rp1010
ag4
(I384
I2208
I32
I32
tp1011
Rp1012
ag4
(I416
I2208
I32
I32
tp1013
Rp1014
ag4
(I448
I2208
I32
I32
tp1015
Rp1016
ag4
(I480
I2208
I32
I32
tp1017
Rp1018
ag4
(I608
I2208
I32
I32
tp1019
Rp1020
ag4
(I0
I2240
I32
I32
tp1021
Rp1022
ag4
(I608
I2240
I32
I32
tp1023
Rp1024
ag4
(I0
I2272
I32
I32
tp1025
Rp1026
ag4
(I608
I2272
I32
I32
tp1027
Rp1028
ag4
(I0
I2304
I32
I32
tp1029
Rp1030
ag4
(I480
I2304
I32
I32
tp1031
Rp1032
ag4
(I512
I2304
I32
I32
tp1033
Rp1034
ag4
(I544
I2304
I32
I32
tp1035
Rp1036
ag4
(I576
I2304
I32
I32
tp1037
Rp1038
ag4
(I608
I2304
I32
I32
tp1039
Rp1040
ag4
(I0
I2336
I32
I32
tp1041
Rp1042
ag4
(I608
I2336
I32
I32
tp1043
Rp1044
ag4
(I0
I2368
I32
I32
tp1045
Rp1046
ag4
(I224
I2368
I32
I32
tp1047
Rp1048
ag4
(I256
I2368
I32
I32
tp1049
Rp1050
ag4
(I288
I2368
I32
I32
tp1051
Rp1052
ag4
(I320
I2368
I32
I32
tp1053
Rp1054
ag4
(I352
I2368
I32
I32
tp1055
Rp1056
ag4
(I384
I2368
I32
I32
tp1057
Rp1058
ag4
(I608
I2368
I32
I32
tp1059
Rp1060
ag4
(I0
I2400
I32
I32
tp1061
Rp1062
ag4
(I288
I2400
I32
I32
tp1063
Rp1064
ag4
(I320
I2400
I32
I32
tp1065
Rp1066
ag4
(I608
I2400
I32
I32
tp1067
Rp1068
ag4
(I0
I2432
I32
I32
tp1069
Rp1070
ag4
(I288
I2432
I32
I32
tp1071
Rp1072
ag4
(I320
I2432
I32
I32
tp1073
Rp1074
ag4
(I608
I2432
I32
I32
tp1075
Rp1076
ag4
(I0
I2464
I32
I32
tp1077
Rp1078
ag4
(I192
I2464
I32
I32
tp1079
Rp1080
ag4
(I224
I2464
I32
I32
tp1081
Rp1082
ag4
(I256
I2464
I32
I32
tp1083
Rp1084
ag4
(I288
I2464
I32
I32
tp1085
Rp1086
ag4
(I320
I2464
I32
I32
tp1087
Rp1088
ag4
(I352
I2464
I32
I32
tp1089
Rp1090
ag4
(I384
I2464
I32
I32
tp1091
Rp1092
ag4
(I416
I2464
I32
I32
tp1093
Rp1094
ag4
(I608
I2464
I32
I32
tp1095
Rp1096
ag4
(I0
I2496
I32
I32
tp1097
Rp1098
ag4
(I288
I2496
I32
I32
tp1099
Rp1100
ag4
(I320
I2496
I32
I32
tp1101
Rp1102
ag4
(I608
I2496
I32
I32
tp1103
Rp1104
ag4
(I0
I2528
I32
I32
tp1105
Rp1106
ag4
(I32
I2528
I32
I32
tp1107
Rp1108
ag4
(I64
I2528
I32
I32
tp1109
Rp1110
ag4
(I96
I2528
I32
I32
tp1111
Rp1112
ag4
(I288
I2528
I32
I32
tp1113
Rp1114
ag4
(I320
I2528
I32
I32
tp1115
Rp1116
ag4
(I512
I2528
I32
I32
tp1117
Rp1118
ag4
(I544
I2528
I32
I32
tp1119
Rp1120
ag4
(I576
I2528
I32
I32
tp1121
Rp1122
ag4
(I608
I2528
I32
I32
tp1123
Rp1124
ag4
(I0
I2560
I32
I32
tp1125
Rp1126
ag4
(I96
I2560
I32
I32
tp1127
Rp1128
ag4
(I288
I2560
I32
I32
tp1129
Rp1130
ag4
(I320
I2560
I32
I32
tp1131
Rp1132
ag4
(I608
I2560
I32
I32
tp1133
Rp1134
ag4
(I0
I2592
I32
I32
tp1135
Rp1136
ag4
(I96
I2592
I32
I32
tp1137
Rp1138
ag4
(I288
I2592
I32
I32
tp1139
Rp1140
ag4
(I320
I2592
I32
I32
tp1141
Rp1142
ag4
(I352
I2592
I32
I32
tp1143
Rp1144
ag4
(I384
I2592
I32
I32
tp1145
Rp1146
ag4
(I416
I2592
I32
I32
tp1147
Rp1148
ag4
(I448
I2592
I32
I32
tp1149
Rp1150
ag4
(I608
I2592
I32
I32
tp1151
Rp1152
ag4
(I0
I2624
I32
I32
tp1153
Rp1154
ag4
(I32
I2624
I32
I32
tp1155
Rp1156
ag4
(I64
I2624
I32
I32
tp1157
Rp1158
ag4
(I96
I2624
I32
I32
tp1159
Rp1160
ag4
(I128
I2624
I32
I32
tp1161
Rp1162
ag4
(I160
I2624
I32
I32
tp1163
Rp1164
ag4
(I192
I2624
I32
I32
tp1165
Rp1166
ag4
(I288
I2624
I32
I32
tp1167
Rp1168
ag4
(I320
I2624
I32
I32
tp1169
Rp1170
ag4
(I608
I2624
I32
I32
tp1171
Rp1172
ag4
(I0
I2656
I32
I32
tp1173
Rp1174
ag4
(I288
I2656
I32
I32
tp1175
Rp1176
ag4
(I320
I2656
I32
I32
tp1177
Rp1178
ag4
(I480
I2656
I32
I32
tp1179
Rp1180
ag4
(I608
I2656
I32
I32
tp1181
Rp1182
ag4
(I0
I2688
I32
I32
tp1183
Rp1184
ag4
(I256
I2688
I32
I32
tp1185
Rp1186
ag4
(I288
I2688
I32
I32
tp1187
Rp1188
ag4
(I320
I2688
I32
I32
tp1189
Rp1190
ag4
(I608
I2688
I32
I32
tp1191
Rp1192
ag4
(I0
I2720
I32
I32
tp1193
Rp1194
ag4
(I288
I2720
I32
I32
tp1195
Rp1196
ag4
(I320
I2720
I32
I32
tp1197
Rp1198
ag4
(I384
I2720
I32
I32
tp1199
Rp1200
ag4
(I416
I2720
I32
I32
tp1201
Rp1202
ag4
(I448
I2720
I32
I32
tp1203
Rp1204
ag4
(I480
I2720
I32
I32
tp1205
Rp1206
ag4
(I512
I2720
I32
I32
tp1207
Rp1208
ag4
(I544
I2720
I32
I32
tp1209
Rp1210
ag4
(I608
I2720
I32
I32
tp1211
Rp1212
ag4
(I0
I2752
I32
I32
tp1213
Rp1214
ag4
(I192
I2752
I32
I32
tp1215
Rp1216
ag4
(I224
I2752
I32
I32
tp1217
Rp1218
ag4
(I256
I2752
I32
I32
tp1219
Rp1220
ag4
(I288
I2752
I32
I32
tp1221
Rp1222
ag4
(I320
I2752
I32
I32
tp1223
Rp1224
ag4
(I608
I2752
I32
I32
tp1225
Rp1226
ag4
(I0
I2784
I32
I32
tp1227
Rp1228
ag4
(I96
I2784
I32
I32
tp1229
Rp1230
ag4
(I128
I2784
I32
I32
tp1231
Rp1232
ag4
(I160
I2784
I32
I32
tp1233
Rp1234
ag4
(I192
I2784
I32
I32
tp1235
Rp1236
ag4
(I320
I2784
I32
I32
tp1237
Rp1238
ag4
(I608
I2784
I32
I32
tp1239
Rp1240
ag4
(I0
I2816
I32
I32
tp1241
Rp1242
ag4
(I96
I2816
I32
I32
tp1243
Rp1244
ag4
(I320
I2816
I32
I32
tp1245
Rp1246
ag4
(I576
I2816
I32
I32
tp1247
Rp1248
ag4
(I608
I2816
I32
I32
tp1249
Rp1250
ag4
(I0
I2848
I32
I32
tp1251
Rp1252
ag4
(I32
I2848
I32
I32
tp1253
Rp1254
ag4
(I64
I2848
I32
I32
tp1255
Rp1256
ag4
(I96
I2848
I32
I32
tp1257
Rp1258
ag4
(I128
I2848
I32
I32
tp1259
Rp1260
ag4
(I160
I2848
I32
I32
tp1261
Rp1262
ag4
(I192
I2848
I32
I32
tp1263
Rp1264
ag4
(I224
I2848
I32
I32
tp1265
Rp1266
ag4
(I256
I2848
I32
I32
tp1267
Rp1268
ag4
(I288
I2848
I32
I32
tp1269
Rp1270
ag4
(I320
I2848
I32
I32
tp1271
Rp1272
ag4
(I448
I2848
I32
I32
tp1273
Rp1274
ag4
(I480
I2848
I32
I32
tp1275
Rp1276
ag4
(I512
I2848
I32
I32
tp1277
Rp1278
ag4
(I544
I2848
I32
I32
tp1279
Rp1280
ag4
(I576
I2848
I32
I32
tp1281
Rp1282
ag4
(I608
I2848
I32
I32
tp1283
Rp1284
ag4
(I0
I2880
I32
I32
tp1285
Rp1286
ag4
(I608
I2880
I32
I32
tp1287
Rp1288
ag4
(I0
I2912
I32
I32
tp1289
Rp1290
ag4
(I608
I2912
I32
I32
tp1291
Rp1292
ag4
(I0
I2944
I32
I32
tp1293
Rp1294
ag4
(I320
I2944
I32
I32
tp1295
Rp1296
ag4
(I352
I2944
I32
I32
tp1297
Rp1298
ag4
(I384
I2944
I32
I32
tp1299
Rp1300
ag4
(I416
I2944
I32
I32
tp1301
Rp1302
ag4
(I448
I2944
I32
I32
tp1303
Rp1304
ag4
(I608
I2944
I32
I32
tp1305
Rp1306
ag4
(I0
I2976
I32
I32
tp1307
Rp1308
ag4
(I608
I2976
I32
I32
tp1309
Rp1310
ag4
(I0
I3008
I32
I32
tp1311
Rp1312
ag4
(I608
I3008
I32
I32
tp1313
Rp1314
ag4
(I0
I3040
I32
I32
tp1315
Rp1316
ag4
(I160
I3040
I32
I32
tp1317
Rp1318
ag4
(I192
I3040
I32
I32
tp1319
Rp1320
ag4
(I224
I3040
I32
I32
tp1321
Rp1322
ag4
(I256
I3040
I32
I32
tp1323
Rp1324
ag4
(I288
I3040
I32
I32
tp1325
Rp1326
ag4
(I608
I3040
I32
I32
tp1327
Rp1328
ag4
(I0
I3072
I32
I32
tp1329
Rp1330
ag4
(I608
I3072
I32
I32
tp1331
Rp1332
ag4
(I0
I3104
I32
I32
tp1333
Rp1334
ag4
(I608
I3104
I32
I32
tp1335
Rp1336
ag4
(I0
I3136
I32
I32
tp1337
Rp1338
ag4
(I128
I3136
I32
I32
tp1339
Rp1340
ag4
(I160
I3136
I32
I32
tp1341
Rp1342
ag4
(I192
I3136
I32
I32
tp1343
Rp1344
ag4
(I224
I3136
I32
I32
tp1345
Rp1346
ag4
(I256
I3136
I32
I32
tp1347
Rp1348
ag4
(I288
I3136
I32
I32
tp1349
Rp1350
ag4
(I320
I3136
I32
I32
tp1351
Rp1352
ag4
(I352
I3136
I32
I32
tp1353
Rp1354
ag4
(I384
I3136
I32
I32
tp1355
Rp1356
ag4
(I416
I3136
I32
I32
tp1357
Rp1358
ag4
(I448
I3136
I32
I32
tp1359
Rp1360
ag4
(I480
I3136
I32
I32
tp1361
Rp1362
ag4
(I608
I3136
I32
I32
tp1363
Rp1364
ag4
(I0
I3168
I32
I32
tp1365
Rp1366
ag4
(I608
I3168
I32
I32
tp1367
Rp1368
ag4
(I0
I3200
I32
I32
tp1369
Rp1370
ag4
(I448
I3200
I32
I32
tp1371
Rp1372
ag4
(I480
I3200
I32
I32
tp1373
Rp1374
ag4
(I512
I3200
I32
I32
tp1375
Rp1376
ag4
(I544
I3200
I32
I32
tp1377
Rp1378
ag4
(I576
I3200
I32
I32
tp1379
Rp1380
ag4
(I608
I3200
I32
I32
tp1381
Rp1382
ag4
(I0
I3232
I32
I32
tp1383
Rp1384
ag4
(I608
I3232
I32
I32
tp1385
Rp1386
ag4
(I0
I3264
I32
I32
tp1387
Rp1388
ag4
(I608
I3264
I32
I32
tp1389
Rp1390
ag4
(I0
I3296
I32
I32
tp1391
Rp1392
ag4
(I608
I3296
I32
I32
tp1393
Rp1394
ag4
(I0
I3328
I32
I32
tp1395
Rp1396
ag4
(I32
I3328
I32
I32
tp1397
Rp1398
ag4
(I128
I3328
I32
I32
tp1399
Rp1400
ag4
(I160
I3328
I32
I32
tp1401
Rp1402
ag4
(I192
I3328
I32
I32
tp1403
Rp1404
ag4
(I224
I3328
I32
I32
tp1405
Rp1406
ag4
(I256
I3328
I32
I32
tp1407
Rp1408
ag4
(I288
I3328
I32
I32
tp1409
Rp1410
ag4
(I320
I3328
I32
I32
tp1411
Rp1412
ag4
(I352
I3328
I32
I32
tp1413
Rp1414
ag4
(I384
I3328
I32
I32
tp1415
Rp1416
ag4
(I416
I3328
I32
I32
tp1417
Rp1418
ag4
(I448
I3328
I32
I32
tp1419
Rp1420
ag4
(I480
I3328
I32
I32
tp1421
Rp1422
ag4
(I512
I3328
I32
I32
tp1423
Rp1424
ag4
(I544
I3328
I32
I32
tp1425
Rp1426
ag4
(I576
I3328
I32
I32
tp1427
Rp1428
ag4
(I608
I3328
I32
I32
tp1429
Rp1430
ag4
(I32
I3360
I32
I32
tp1431
Rp1432
ag4
(I128
I3360
I32
I32
tp1433
Rp1434
ag4
(I32
I3392
I32
I32
tp1435
Rp1436
ag4
(I128
I3392
I32
I32
tp1437
Rp1438
ag4
(I160
I3392
I32
I32
tp1439
Rp1440
ag4
(I192
I3392
I32
I32
tp1441
Rp1442
ag4
(I224
I3392
I32
I32
tp1443
Rp1444
ag4
(I256
I3392
I32
I32
tp1445
Rp1446
ag4
(I288
I3392
I32
I32
tp1447
Rp1448
ag4
(I320
I3392
I32
I32
tp1449
Rp1450
ag4
(I352
I3392
I32
I32
tp1451
Rp1452
ag4
(I384
I3392
I32
I32
tp1453
Rp1454
ag4
(I416
I3392
I32
I32
tp1455
Rp1456
ag4
(I448
I3392
I32
I32
tp1457
Rp1458
ag4
(I480
I3392
I32
I32
tp1459
Rp1460
ag4
(I512
I3392
I32
I32
tp1461
Rp1462
ag4
(I544
I3392
I32
I32
tp1463
Rp1464
ag4
(I576
I3392
I32
I32
tp1465
Rp1466
ag4
(I32
I3424
I32
I32
tp1467
Rp1468
ag4
(I576
I3424
I32
I32
tp1469
Rp1470
ag4
(I0
I3456
I32
I32
tp1471
Rp1472
ag4
(I32
I3456
I32
I32
tp1473
Rp1474
ag4
(I64
I3456
I32
I32
tp1475
Rp1476
ag4
(I96
I3456
I32
I32
tp1477
Rp1478
ag4
(I128
I3456
I32
I32
tp1479
Rp1480
ag4
(I160
I3456
I32
I32
tp1481
Rp1482
ag4
(I192
I3456
I32
I32
tp1483
Rp1484
ag4
(I224
I3456
I32
I32
tp1485
Rp1486
ag4
(I256
I3456
I32
I32
tp1487
Rp1488
ag4
(I288
I3456
I32
I32
tp1489
Rp1490
ag4
(I320
I3456
I32
I32
tp1491
Rp1492
ag4
(I352
I3456
I32
I32
tp1493
Rp1494
ag4
(I384
I3456
I32
I32
tp1495
Rp1496
ag4
(I416
I3456
I32
I32
tp1497
Rp1498
ag4
(I448
I3456
I32
I32
tp1499
Rp1500
ag4
(I576
I3456
I32
I32
tp1501
Rp1502
ag4
(I0
I3488
I32
I32
tp1503
Rp1504
ag4
(I416
I3488
I32
I32
tp1505
Rp1506
ag4
(I576
I3488
I32
I32
tp1507
Rp1508
ag4
(I0
I3520
I32
I32
tp1509
Rp1510
ag4
(I416
I3520
I32
I32
tp1511
Rp1512
ag4
(I544
I3520
I32
I32
tp1513
Rp1514
ag4
(I576
I3520
I32
I32
tp1515
Rp1516
ag4
(I0
I3552
I32
I32
tp1517
Rp1518
ag4
(I416
I3552
I32
I32
tp1519
Rp1520
ag4
(I576
I3552
I32
I32
tp1521
Rp1522
ag4
(I0
I3584
I32
I32
tp1523
Rp1524
ag4
(I128
I3584
I32
I32
tp1525
Rp1526
ag4
(I160
I3584
I32
I32
tp1527
Rp1528
ag4
(I192
I3584
I32
I32
tp1529
Rp1530
ag4
(I224
I3584
I32
I32
tp1531
Rp1532
ag4
(I256
I3584
I32
I32
tp1533
Rp1534
ag4
(I384
I3584
I32
I32
tp1535
Rp1536
ag4
(I416
I3584
I32
I32
tp1537
Rp1538
ag4
(I576
I3584
I32
I32
tp1539
Rp1540
ag4
(I0
I3616
I32
I32
tp1541
Rp1542
ag4
(I256
I3616
I32
I32
tp1543
Rp1544
ag4
(I416
I3616
I32
I32
tp1545
Rp1546
ag4
(I448
I3616
I32
I32
tp1547
Rp1548
ag4
(I576
I3616
I32
I32
tp1549
Rp1550
ag4
(I0
I3648
I32
I32
tp1551
Rp1552
ag4
(I256
I3648
I32
I32
tp1553
Rp1554
ag4
(I320
I3648
I32
I32
tp1555
Rp1556
ag4
(I352
I3648
I32
I32
tp1557
Rp1558
ag4
(I416
I3648
I32
I32
tp1559
Rp1560
ag4
(I576
I3648
I32
I32
tp1561
Rp1562
ag4
(I0
I3680
I32
I32
tp1563
Rp1564
ag4
(I256
I3680
I32
I32
tp1565
Rp1566
ag4
(I416
I3680
I32
I32
tp1567
Rp1568
ag4
(I576
I3680
I32
I32
tp1569
Rp1570
ag4
(I0
I3712
I32
I32
tp1571
Rp1572
ag4
(I32
I3712
I32
I32
tp1573
Rp1574
ag4
(I64
I3712
I32
I32
tp1575
Rp1576
ag4
(I96
I3712
I32
I32
tp1577
Rp1578
ag4
(I128
I3712
I32
I32
tp1579
Rp1580
ag4
(I256
I3712
I32
I32
tp1581
Rp1582
ag4
(I288
I3712
I32
I32
tp1583
Rp1584
ag4
(I416
I3712
I32
I32
tp1585
Rp1586
ag4
(I544
I3712
I32
I32
tp1587
Rp1588
ag4
(I576
I3712
I32
I32
tp1589
Rp1590
ag4
(I128
I3744
I32
I32
tp1591
Rp1592
ag4
(I256
I3744
I32
I32
tp1593
Rp1594
ag4
(I576
I3744
I32
I32
tp1595
Rp1596
ag4
(I128
I3776
I32
I32
tp1597
Rp1598
ag4
(I256
I3776
I32
I32
tp1599
Rp1600
ag4
(I576
I3776
I32
I32
tp1601
Rp1602
ag4
(I128
I3808
I32
I32
tp1603
Rp1604
ag4
(I224
I3808
I32
I32
tp1605
Rp1606
ag4
(I256
I3808
I32
I32
tp1607
Rp1608
ag4
(I288
I3808
I32
I32
tp1609
Rp1610
ag4
(I320
I3808
I32
I32
tp1611
Rp1612
ag4
(I352
I3808
I32
I32
tp1613
Rp1614
ag4
(I384
I3808
I32
I32
tp1615
Rp1616
ag4
(I416
I3808
I32
I32
tp1617
Rp1618
ag4
(I448
I3808
I32
I32
tp1619
Rp1620
ag4
(I480
I3808
I32
I32
tp1621
Rp1622
ag4
(I512
I3808
I32
I32
tp1623
Rp1624
ag4
(I544
I3808
I32
I32
tp1625
Rp1626
ag4
(I576
I3808
I32
I32
tp1627
Rp1628
ag4
(I608
I3808
I32
I32
tp1629
Rp1630
ag4
(I128
I3840
I32
I32
tp1631
Rp1632
ag4
(I608
I3840
I32
I32
tp1633
Rp1634
ag4
(I128
I3872
I32
I32
tp1635
Rp1636
ag4
(I608
I3872
I32
I32
tp1637
Rp1638
ag4
(I128
I3904
I32
I32
tp1639
Rp1640
ag4
(I160
I3904
I32
I32
tp1641
Rp1642
ag4
(I192
I3904
I32
I32
tp1643
Rp1644
ag4
(I224
I3904
I32
I32
tp1645
Rp1646
ag4
(I256
I3904
I32
I32
tp1647
Rp1648
ag4
(I288
I3904
I32
I32
tp1649
Rp1650
ag4
(I608
I3904
I32
I32
tp1651
Rp1652
ag4
(I0
I3936
I32
I32
tp1653
Rp1654
ag4
(I32
I3936
I32
I32
tp1655
Rp1656
ag4
(I64
I3936
I32
I32
tp1657
Rp1658
ag4
(I96
I3936
I32
I32
tp1659
Rp1660
ag4
(I128
I3936
I32
I32
tp1661
Rp1662
ag4
(I160
I3936
I32
I32
tp1663
Rp1664
ag4
(I192
I3936
I32
I32
tp1665
Rp1666
ag4
(I224
I3936
I32
I32
tp1667
Rp1668
ag4
(I256
I3936
I32
I32
tp1669
Rp1670
ag4
(I288
I3936
I32
I32
tp1671
Rp1672
ag4
(I320
I3936
I32
I32
tp1673
Rp1674
ag4
(I352
I3936
I32
I32
tp1675
Rp1676
ag4
(I384
I3936
I32
I32
tp1677
Rp1678
ag4
(I416
I3936
I32
I32
tp1679
Rp1680
ag4
(I448
I3936
I32
I32
tp1681
Rp1682
ag4
(I480
I3936
I32
I32
tp1683
Rp1684
ag4
(I608
I3936
I32
I32
tp1685
Rp1686
ag4
(I0
I3968
I32
I32
tp1687
Rp1688
ag4
(I608
I3968
I32
I32
tp1689
Rp1690
ag4
(I0
I4000
I32
I32
tp1691
Rp1692
ag4
(I512
I4000
I32
I32
tp1693
Rp1694
ag4
(I544
I4000
I32
I32
tp1695
Rp1696
ag4
(I576
I4000
I32
I32
tp1697
Rp1698
ag4
(I608
I4000
I32
I32
tp1699
Rp1700
ag4
(I0
I4032
I32
I32
tp1701
Rp1702
ag4
(I448
I4032
I32
I32
tp1703
Rp1704
ag4
(I480
I4032
I32
I32
tp1705
Rp1706
ag4
(I512
I4032
I32
I32
tp1707
Rp1708
ag4
(I0
I4064
I32
I32
tp1709
Rp1710
ag4
(I384
I4064
I32
I32
tp1711
Rp1712
ag4
(I416
I4064
I32
I32
tp1713
Rp1714
ag4
(I448
I4064
I32
I32
tp1715
Rp1716
ag4
(I0
I4096
I32
I32
tp1717
Rp1718
ag4
(I320
I4096
I32
I32
tp1719
Rp1720
ag4
(I352
I4096
I32
I32
tp1721
Rp1722
ag4
(I384
I4096
I32
I32
tp1723
Rp1724
ag4
(I0
I4128
I32
I32
tp1725
Rp1726
ag4
(I320
I4128
I32
I32
tp1727
Rp1728
ag4
(I0
I4160
I32
I32
tp1729
Rp1730
ag4
(I192
I4160
I32
I32
tp1731
Rp1732
ag4
(I224
I4160
I32
I32
tp1733
Rp1734
ag4
(I256
I4160
I32
I32
tp1735
Rp1736
ag4
(I288
I4160
I32
I32
tp1737
Rp1738
ag4
(I320
I4160
I32
I32
tp1739
Rp1740
ag4
(I0
I4192
I32
I32
tp1741
Rp1742
ag4
(I128
I4192
I32
I32
tp1743
Rp1744
ag4
(I160
I4192
I32
I32
tp1745
Rp1746
ag4
(I192
I4192
I32
I32
tp1747
Rp1748
ag4
(I224
I4192
I32
I32
tp1749
Rp1750
ag4
(I256
I4192
I32
I32
tp1751
Rp1752
ag4
(I288
I4192
I32
I32
tp1753
Rp1754
ag4
(I320
I4192
I32
I32
tp1755
Rp1756
ag4
(I352
I4192
I32
I32
tp1757
Rp1758
ag4
(I384
I4192
I32
I32
tp1759
Rp1760
ag4
(I416
I4192
I32
I32
tp1761
Rp1762
ag4
(I448
I4192
I32
I32
tp1763
Rp1764
ag4
(I480
I4192
I32
I32
tp1765
Rp1766
ag4
(I512
I4192
I32
I32
tp1767
Rp1768
ag4
(I544
I4192
I32
I32
tp1769
Rp1770
ag4
(I576
I4192
I32
I32
tp1771
Rp1772
ag4
(I608
I4192
I32
I32
tp1773
Rp1774
ag4
(I0
I4224
I32
I32
tp1775
Rp1776
ag4
(I608
I4224
I32
I32
tp1777
Rp1778
ag4
(I0
I4256
I32
I32
tp1779
Rp1780
ag4
(I608
I4256
I32
I32
tp1781
Rp1782
ag4
(I0
I4288
I32
I32
tp1783
Rp1784
ag4
(I608
I4288
I32
I32
tp1785
Rp1786
ag4
(I0
I4320
I32
I32
tp1787
Rp1788
ag4
(I32
I4320
I32
I32
tp1789
Rp1790
ag4
(I64
I4320
I32
I32
tp1791
Rp1792
ag4
(I96
I4320
I32
I32
tp1793
Rp1794
ag4
(I128
I4320
I32
I32
tp1795
Rp1796
ag4
(I160
I4320
I32
I32
tp1797
Rp1798
ag4
(I192
I4320
I32
I32
tp1799
Rp1800
ag4
(I224
I4320
I32
I32
tp1801
Rp1802
ag4
(I256
I4320
I32
I32
tp1803
Rp1804
ag4
(I288
I4320
I32
I32
tp1805
Rp1806
ag4
(I320
I4320
I32
I32
tp1807
Rp1808
ag4
(I352
I4320
I32
I32
tp1809
Rp1810
ag4
(I384
I4320
I32
I32
tp1811
Rp1812
ag4
(I608
I4320
I32
I32
tp1813
Rp1814
ag4
(I0
I4352
I32
I32
tp1815
Rp1816
ag4
(I608
I4352
I32
I32
tp1817
Rp1818
ag4
(I0
I4384
I32
I32
tp1819
Rp1820
ag4
(I608
I4384
I32
I32
tp1821
Rp1822
ag4
(I0
I4416
I32
I32
tp1823
Rp1824
ag4
(I608
I4416
I32
I32
tp1825
Rp1826
ag4
(I0
I4448
I32
I32
tp1827
Rp1828
ag4
(I160
I4448
I32
I32
tp1829
Rp1830
ag4
(I192
I4448
I32
I32
tp1831
Rp1832
ag4
(I224
I4448
I32
I32
tp1833
Rp1834
ag4
(I256
I4448
I32
I32
tp1835
Rp1836
ag4
(I288
I4448
I32
I32
tp1837
Rp1838
ag4
(I416
I4448
I32
I32
tp1839
Rp1840
ag4
(I448
I4448
I32
I32
tp1841
Rp1842
ag4
(I480
I4448
I32
I32
tp1843
Rp1844
ag4
(I512
I4448
I32
I32
tp1845
Rp1846
ag4
(I544
I4448
I32
I32
tp1847
Rp1848
ag4
(I576
I4448
I32
I32
tp1849
Rp1850
ag4
(I608
I4448
I32
I32
tp1851
Rp1852
ag4
(I0
I4480
I32
I32
tp1853
Rp1854
ag4
(I32
I4480
I32
I32
tp1855
Rp1856
ag4
(I160
I4480
I32
I32
tp1857
Rp1858
ag4
(I288
I4480
I32
I32
tp1859
Rp1860
ag4
(I416
I4480
I32
I32
tp1861
Rp1862
ag4
(I0
I4512
I32
I32
tp1863
Rp1864
ag4
(I160
I4512
I32
I32
tp1865
Rp1866
ag4
(I192
I4512
I32
I32
tp1867
Rp1868
ag4
(I224
I4512
I32
I32
tp1869
Rp1870
ag4
(I256
I4512
I32
I32
tp1871
Rp1872
ag4
(I288
I4512
I32
I32
tp1873
Rp1874
ag4
(I320
I4512
I32
I32
tp1875
Rp1876
ag4
(I352
I4512
I32
I32
tp1877
Rp1878
ag4
(I384
I4512
I32
I32
tp1879
Rp1880
ag4
(I416
I4512
I32
I32
tp1881
Rp1882
ag4
(I448
I4512
I32
I32
tp1883
Rp1884
ag4
(I480
I4512
I32
I32
tp1885
Rp1886
ag4
(I512
I4512
I32
I32
tp1887
Rp1888
ag4
(I544
I4512
I32
I32
tp1889
Rp1890
ag4
(I576
I4512
I32
I32
tp1891
Rp1892
ag4
(I608
I4512
I32
I32
tp1893
Rp1894
ag4
(I0
I4544
I32
I32
tp1895
Rp1896
ag4
(I608
I4544
I32
I32
tp1897
Rp1898
ag4
(I0
I4576
I32
I32
tp1899
Rp1900
ag4
(I608
I4576
I32
I32
tp1901
Rp1902
ag4
(I0
I4608
I32
I32
tp1903
Rp1904
ag4
(I608
I4608
I32
I32
tp1905
Rp1906
ag4
(I0
I4640
I32
I32
tp1907
Rp1908
ag4
(I32
I4640
I32
I32
tp1909
Rp1910
ag4
(I64
I4640
I32
I32
tp1911
Rp1912
ag4
(I96
I4640
I32
I32
tp1913
Rp1914
ag4
(I128
I4640
I32
I32
tp1915
Rp1916
ag4
(I160
I4640
I32
I32
tp1917
Rp1918
ag4
(I192
I4640
I32
I32
tp1919
Rp1920
ag4
(I224
I4640
I32
I32
tp1921
Rp1922
ag4
(I256
I4640
I32
I32
tp1923
Rp1924
ag4
(I288
I4640
I32
I32
tp1925
Rp1926
ag4
(I320
I4640
I32
I32
tp1927
Rp1928
ag4
(I480
I4640
I32
I32
tp1929
Rp1930
ag4
(I512
I4640
I32
I32
tp1931
Rp1932
ag4
(I544
I4640
I32
I32
tp1933
Rp1934
ag4
(I576
I4640
I32
I32
tp1935
Rp1936
ag4
(I608
I4640
I32
I32
tp1937
Rp1938
ag4
(I0
I4672
I32
I32
tp1939
Rp1940
ag4
(I320
I4672
I32
I32
tp1941
Rp1942
ag4
(I480
I4672
I32
I32
tp1943
Rp1944
ag4
(I0
I4704
I32
I32
tp1945
Rp1946
ag4
(I320
I4704
I32
I32
tp1947
Rp1948
ag4
(I480
I4704
I32
I32
tp1949
Rp1950
ag4
(I512
I4704
I32
I32
tp1951
Rp1952
ag4
(I544
I4704
I32
I32
tp1953
Rp1954
ag4
(I576
I4704
I32
I32
tp1955
Rp1956
ag4
(I608
I4704
I32
I32
tp1957
Rp1958
ag4
(I0
I4736
I32
I32
tp1959
Rp1960
ag4
(I320
I4736
I32
I32
tp1961
Rp1962
ag4
(I608
I4736
I32
I32
tp1963
Rp1964
ag4
(I0
I4768
I32
I32
tp1965
Rp1966
ag4
(I192
I4768
I32
I32
tp1967
Rp1968
ag4
(I320
I4768
I32
I32
tp1969
Rp1970
ag4
(I352
I4768
I32
I32
tp1971
Rp1972
ag4
(I608
I4768
I32
I32
tp1973
Rp1974
ag4
(I0
I4800
I32
I32
tp1975
Rp1976
ag4
(I192
I4800
I32
I32
tp1977
Rp1978
ag4
(I320
I4800
I32
I32
tp1979
Rp1980
ag4
(I352
I4800
I32
I32
tp1981
Rp1982
ag4
(I384
I4800
I32
I32
tp1983
Rp1984
ag4
(I608
I4800
I32
I32
tp1985
Rp1986
ag4
(I0
I4832
I32
I32
tp1987
Rp1988
ag4
(I192
I4832
I32
I32
tp1989
Rp1990
ag4
(I224
I4832
I32
I32
tp1991
Rp1992
ag4
(I320
I4832
I32
I32
tp1993
Rp1994
ag4
(I352
I4832
I32
I32
tp1995
Rp1996
ag4
(I384
I4832
I32
I32
tp1997
Rp1998
ag4
(I416
I4832
I32
I32
tp1999
Rp2000
ag4
(I448
I4832
I32
I32
tp2001
Rp2002
ag4
(I480
I4832
I32
I32
tp2003
Rp2004
ag4
(I608
I4832
I32
I32
tp2005
Rp2006
ag4
(I0
I4864
I32
I32
tp2007
Rp2008
ag4
(I192
I4864
I32
I32
tp2009
Rp2010
ag4
(I608
I4864
I32
I32
tp2011
Rp2012
ag4
(I0
I4896
I32
I32
tp2013
Rp2014
ag4
(I192
I4896
I32
I32
tp2015
Rp2016
ag4
(I608
I4896
I32
I32
tp2017
Rp2018
ag4
(I0
I4928
I32
I32
tp2019
Rp2020
ag4
(I32
I4928
I32
I32
tp2021
Rp2022
ag4
(I64
I4928
I32
I32
tp2023
Rp2024
ag4
(I160
I4928
I32
I32
tp2025
Rp2026
ag4
(I192
I4928
I32
I32
tp2027
Rp2028
ag4
(I224
I4928
I32
I32
tp2029
Rp2030
ag4
(I256
I4928
I32
I32
tp2031
Rp2032
ag4
(I288
I4928
I32
I32
tp2033
Rp2034
ag4
(I320
I4928
I32
I32
tp2035
Rp2036
ag4
(I352
I4928
I32
I32
tp2037
Rp2038
ag4
(I384
I4928
I32
I32
tp2039
Rp2040
ag4
(I416
I4928
I32
I32
tp2041
Rp2042
ag4
(I448
I4928
I32
I32
tp2043
Rp2044
ag4
(I480
I4928
I32
I32
tp2045
Rp2046
ag4
(I512
I4928
I32
I32
tp2047
Rp2048
ag4
(I544
I4928
I32
I32
tp2049
Rp2050
ag4
(I576
I4928
I32
I32
tp2051
Rp2052
ag4
(I608
I4928
I32
I32
tp2053
Rp2054
ag4
(I0
I4960
I32
I32
tp2055
Rp2056
ag4
(I608
I4960
I32
I32
tp2057
Rp2058
ag4
(I0
I4992
I32
I32
tp2059
Rp2060
ag4
(I608
I4992
I32
I32
tp2061
Rp2062
ag4
(I0
I5024
I32
I32
tp2063
Rp2064
ag4
(I608
I5024
I32
I32
tp2065
Rp2066
ag4
(I0
I5056
I32
I32
tp2067
Rp2068
ag4
(I32
I5056
I32
I32
tp2069
Rp2070
ag4
(I64
I5056
I32
I32
tp2071
Rp2072
ag4
(I96
I5056
I32
I32
tp2073
Rp2074
ag4
(I128
I5056
I32
I32
tp2075
Rp2076
ag4
(I608
I5056
I32
I32
tp2077
Rp2078
ag4
(I0
I5088
I32
I32
tp2079
Rp2080
ag4
(I416
I5088
I32
I32
tp2081
Rp2082
ag4
(I448
I5088
I32
I32
tp2083
Rp2084
ag4
(I480
I5088
I32
I32
tp2085
Rp2086
ag4
(I512
I5088
I32
I32
tp2087
Rp2088
ag4
(I608
I5088
I32
I32
tp2089
Rp2090
ag4
(I0
I5120
I32
I32
tp2091
Rp2092
ag4
(I192
I5120
I32
I32
tp2093
Rp2094
ag4
(I224
I5120
I32
I32
tp2095
Rp2096
ag4
(I256
I5120
I32
I32
tp2097
Rp2098
ag4
(I288
I5120
I32
I32
tp2099
Rp2100
ag4
(I608
I5120
I32
I32
tp2101
Rp2102
ag4
(I0
I5152
I32
I32
tp2103
Rp2104
ag4
(I608
I5152
I32
I32
tp2105
Rp2106
ag4
(I0
I5184
I32
I32
tp2107
Rp2108
ag4
(I608
I5184
I32
I32
tp2109
Rp2110
ag4
(I0
I5216
I32
I32
tp2111
Rp2112
ag4
(I608
I5216
I32
I32
tp2113
Rp2114
ag4
(I0
I5248
I32
I32
tp2115
Rp2116
ag4
(I512
I5248
I32
I32
tp2117
Rp2118
ag4
(I544
I5248
I32
I32
tp2119
Rp2120
ag4
(I576
I5248
I32
I32
tp2121
Rp2122
ag4
(I608
I5248
I32
I32
tp2123
Rp2124
ag4
(I0
I5280
I32
I32
tp2125
Rp2126
ag4
(I608
I5280
I32
I32
tp2127
Rp2128
ag4
(I0
I5312
I32
I32
tp2129
Rp2130
ag4
(I384
I5312
I32
I32
tp2131
Rp2132
ag4
(I416
I5312
I32
I32
tp2133
Rp2134
ag4
(I448
I5312
I32
I32
tp2135
Rp2136
ag4
(I480
I5312
I32
I32
tp2137
Rp2138
ag4
(I608
I5312
I32
I32
tp2139
Rp2140
ag4
(I0
I5344
I32
I32
tp2141
Rp2142
ag4
(I160
I5344
I32
I32
tp2143
Rp2144
ag4
(I192
I5344
I32
I32
tp2145
Rp2146
ag4
(I224
I5344
I32
I32
tp2147
Rp2148
ag4
(I256
I5344
I32
I32
tp2149
Rp2150
ag4
(I288
I5344
I32
I32
tp2151
Rp2152
ag4
(I608
I5344
I32
I32
tp2153
Rp2154
ag4
(I0
I5376
I32
I32
tp2155
Rp2156
ag4
(I608
I5376
I32
I32
tp2157
Rp2158
ag4
(I0
I5408
I32
I32
tp2159
Rp2160
ag4
(I608
I5408
I32
I32
tp2161
Rp2162
ag4
(I0
I5440
I32
I32
tp2163
Rp2164
ag4
(I608
I5440
I32
I32
tp2165
Rp2166
ag4
(I0
I5472
I32
I32
tp2167
Rp2168
ag4
(I32
I5472
I32
I32
tp2169
Rp2170
ag4
(I64
I5472
I32
I32
tp2171
Rp2172
ag4
(I96
I5472
I32
I32
tp2173
Rp2174
ag4
(I416
I5472
I32
I32
tp2175
Rp2176
ag4
(I448
I5472
I32
I32
tp2177
Rp2178
ag4
(I480
I5472
I32
I32
tp2179
Rp2180
ag4
(I512
I5472
I32
I32
tp2181
Rp2182
ag4
(I544
I5472
I32
I32
tp2183
Rp2184
ag4
(I576
I5472
I32
I32
tp2185
Rp2186
ag4
(I608
I5472
I32
I32
tp2187
Rp2188
ag4
(I0
I5504
I32
I32
tp2189
Rp2190
ag4
(I96
I5504
I32
I32
tp2191
Rp2192
ag4
(I128
I5504
I32
I32
tp2193
Rp2194
ag4
(I384
I5504
I32
I32
tp2195
Rp2196
ag4
(I416
I5504
I32
I32
tp2197
Rp2198
ag4
(I608
I5504
I32
I32
tp2199
Rp2200
ag4
(I0
I5536
I32
I32
tp2201
Rp2202
ag4
(I128
I5536
I32
I32
tp2203
Rp2204
ag4
(I160
I5536
I32
I32
tp2205
Rp2206
ag4
(I352
I5536
I32
I32
tp2207
Rp2208
ag4
(I384
I5536
I32
I32
tp2209
Rp2210
ag4
(I608
I5536
I32
I32
tp2211
Rp2212
ag4
(I0
I5568
I32
I32
tp2213
Rp2214
ag4
(I160
I5568
I32
I32
tp2215
Rp2216
ag4
(I192
I5568
I32
I32
tp2217
Rp2218
ag4
(I320
I5568
I32
I32
tp2219
Rp2220
ag4
(I352
I5568
I32
I32
tp2221
Rp2222
ag4
(I608
I5568
I32
I32
tp2223
Rp2224
ag4
(I0
I5600
I32
I32
tp2225
Rp2226
ag4
(I192
I5600
I32
I32
tp2227
Rp2228
ag4
(I224
I5600
I32
I32
tp2229
Rp2230
ag4
(I288
I5600
I32
I32
tp2231
Rp2232
ag4
(I320
I5600
I32
I32
tp2233
Rp2234
ag4
(I608
I5600
I32
I32
tp2235
Rp2236
ag4
(I0
I5632
I32
I32
tp2237
Rp2238
ag4
(I608
I5632
I32
I32
tp2239
Rp2240
ag4
(I0
I5664
I32
I32
tp2241
Rp2242
ag4
(I608
I5664
I32
I32
tp2243
Rp2244
ag4
(I0
I5696
I32
I32
tp2245
Rp2246
ag4
(I32
I5696
I32
I32
tp2247
Rp2248
ag4
(I64
I5696
I32
I32
tp2249
Rp2250
ag4
(I96
I5696
I32
I32
tp2251
Rp2252
ag4
(I128
I5696
I32
I32
tp2253
Rp2254
ag4
(I160
I5696
I32
I32
tp2255
Rp2256
ag4
(I192
I5696
I32
I32
tp2257
Rp2258
ag4
(I224
I5696
I32
I32
tp2259
Rp2260
ag4
(I256
I5696
I32
I32
tp2261
Rp2262
ag4
(I288
I5696
I32
I32
tp2263
Rp2264
ag4
(I320
I5696
I32
I32
tp2265
Rp2266
ag4
(I352
I5696
I32
I32
tp2267
Rp2268
ag4
(I384
I5696
I32
I32
tp2269
Rp2270
ag4
(I416
I5696
I32
I32
tp2271
Rp2272
ag4
(I608
I5696
I32
I32
tp2273
Rp2274
ag4
(I0
I5728
I32
I32
tp2275
Rp2276
ag4
(I416
I5728
I32
I32
tp2277
Rp2278
ag4
(I608
I5728
I32
I32
tp2279
Rp2280
ag4
(I0
I5760
I32
I32
tp2281
Rp2282
ag4
(I416
I5760
I32
I32
tp2283
Rp2284
ag4
(I608
I5760
I32
I32
tp2285
Rp2286
ag4
(I0
I5792
I32
I32
tp2287
Rp2288
ag4
(I416
I5792
I32
I32
tp2289
Rp2290
ag4
(I608
I5792
I32
I32
tp2291
Rp2292
ag4
(I0
I5824
I32
I32
tp2293
Rp2294
ag4
(I224
I5824
I32
I32
tp2295
Rp2296
ag4
(I256
I5824
I32
I32
tp2297
Rp2298
ag4
(I416
I5824
I32
I32
tp2299
Rp2300
ag4
(I576
I5824
I32
I32
tp2301
Rp2302
ag4
(I608
I5824
I32
I32
tp2303
Rp2304
ag4
(I0
I5856
I32
I32
tp2305
Rp2306
ag4
(I224
I5856
I32
I32
tp2307
Rp2308
ag4
(I416
I5856
I32
I32
tp2309
Rp2310
ag4
(I608
I5856
I32
I32
tp2311
Rp2312
ag4
(I0
I5888
I32
I32
tp2313
Rp2314
ag4
(I128
I5888
I32
I32
tp2315
Rp2316
ag4
(I160
I5888
I32
I32
tp2317
Rp2318
ag4
(I192
I5888
I32
I32
tp2319
Rp2320
ag4
(I224
I5888
I32
I32
tp2321
Rp2322
ag4
(I256
I5888
I32
I32
tp2323
Rp2324
ag4
(I288
I5888
I32
I32
tp2325
Rp2326
ag4
(I416
I5888
I32
I32
tp2327
Rp2328
ag4
(I608
I5888
I32
I32
tp2329
Rp2330
ag4
(I0
I5920
I32
I32
tp2331
Rp2332
ag4
(I224
I5920
I32
I32
tp2333
Rp2334
ag4
(I416
I5920
I32
I32
tp2335
Rp2336
ag4
(I608
I5920
I32
I32
tp2337
Rp2338
ag4
(I0
I5952
I32
I32
tp2339
Rp2340
ag4
(I224
I5952
I32
I32
tp2341
Rp2342
ag4
(I384
I5952
I32
I32
tp2343
Rp2344
ag4
(I416
I5952
I32
I32
tp2345
Rp2346
ag4
(I448
I5952
I32
I32
tp2347
Rp2348
ag4
(I608
I5952
I32
I32
tp2349
Rp2350
ag4
(I0
I5984
I32
I32
tp2351
Rp2352
ag4
(I32
I5984
I32
I32
tp2353
Rp2354
ag4
(I224
I5984
I32
I32
tp2355
Rp2356
ag4
(I416
I5984
I32
I32
tp2357
Rp2358
ag4
(I608
I5984
I32
I32
tp2359
Rp2360
ag4
(I0
I6016
I32
I32
tp2361
Rp2362
ag4
(I224
I6016
I32
I32
tp2363
Rp2364
ag4
(I320
I6016
I32
I32
tp2365
Rp2366
ag4
(I352
I6016
I32
I32
tp2367
Rp2368
ag4
(I384
I6016
I32
I32
tp2369
Rp2370
ag4
(I416
I6016
I32
I32
tp2371
Rp2372
ag4
(I608
I6016
I32
I32
tp2373
Rp2374
ag4
(I0
I6048
I32
I32
tp2375
Rp2376
ag4
(I224
I6048
I32
I32
tp2377
Rp2378
ag4
(I416
I6048
I32
I32
tp2379
Rp2380
ag4
(I608
I6048
I32
I32
tp2381
Rp2382
ag4
(I0
I6080
I32
I32
tp2383
Rp2384
ag4
(I224
I6080
I32
I32
tp2385
Rp2386
ag4
(I416
I6080
I32
I32
tp2387
Rp2388
ag4
(I576
I6080
I32
I32
tp2389
Rp2390
ag4
(I608
I6080
I32
I32
tp2391
Rp2392
ag4
(I0
I6112
I32
I32
tp2393
Rp2394
ag4
(I32
I6112
I32
I32
tp2395
Rp2396
ag4
(I64
I6112
I32
I32
tp2397
Rp2398
ag4
(I96
I6112
I32
I32
tp2399
Rp2400
ag4
(I128
I6112
I32
I32
tp2401
Rp2402
ag4
(I224
I6112
I32
I32
tp2403
Rp2404
ag4
(I256
I6112
I32
I32
tp2405
Rp2406
ag4
(I608
I6112
I32
I32
tp2407
Rp2408
ag4
(I0
I6144
I32
I32
tp2409
Rp2410
ag4
(I224
I6144
I32
I32
tp2411
Rp2412
ag4
(I608
I6144
I32
I32
tp2413
Rp2414
ag4
(I0
I6176
I32
I32
tp2415
Rp2416
ag4
(I224
I6176
I32
I32
tp2417
Rp2418
ag4
(I608
I6176
I32
I32
tp2419
Rp2420
ag4
(I0
I6208
I32
I32
tp2421
Rp2422
ag4
(I32
I6208
I32
I32
tp2423
Rp2424
ag4
(I64
I6208
I32
I32
tp2425
Rp2426
ag4
(I96
I6208
I32
I32
tp2427
Rp2428
ag4
(I128
I6208
I32
I32
tp2429
Rp2430
ag4
(I160
I6208
I32
I32
tp2431
Rp2432
ag4
(I192
I6208
I32
I32
tp2433
Rp2434
ag4
(I224
I6208
I32
I32
tp2435
Rp2436
ag4
(I256
I6208
I32
I32
tp2437
Rp2438
ag4
(I288
I6208
I32
I32
tp2439
Rp2440
ag4
(I320
I6208
I32
I32
tp2441
Rp2442
ag4
(I352
I6208
I32
I32
tp2443
Rp2444
ag4
(I384
I6208
I32
I32
tp2445
Rp2446
ag4
(I416
I6208
I32
I32
tp2447
Rp2448
ag4
(I448
I6208
I32
I32
tp2449
Rp2450
ag4
(I480
I6208
I32
I32
tp2451
Rp2452
ag4
(I512
I6208
I32
I32
tp2453
Rp2454
ag4
(I544
I6208
I32
I32
tp2455
Rp2456
ag4
(I576
I6208
I32
I32
tp2457
Rp2458
ag4
(I608
I6208
I32
I32
tp2459
Rp2460
asS'checkpoints'
p2461
(lp2462
g4
(I288
I768
I32
I32
tp2463
Rp2464
ag4
(I160
I1760
I32
I32
tp2465
Rp2466
ag4
(I288
I2336
I32
I32
tp2467
Rp2468
ag4
(I320
I2336
I32
I32
tp2469
Rp2470
ag4
(I288
I3872
I32
I32
tp2471
Rp2472
ag4
(I256
I5600
I32
I32
tp2473
Rp2474
asS'hazardSplatters'
p2475
(lp2476
sS'splatters'
p2477
(lp2478
sS'enemies'
p2479
(lp2480
(ienemyModule
Enemy
p2481
(dp2482
S'box'
p2483
g4
(I288
I1024
I32
I32
tp2484
Rp2485
sS'vSpeed'
p2486
I0
sS'enragedAnimTimer'
p2487
I0
sS'curFrame'
p2488
I0
sS'tryJump'
p2489
I00
sS'enragedTimer'
p2490
I0
sS'alive'
p2491
I01
sS'facing'
p2492
S'L'
p2493
sS'frameTimer'
p2494
I0
sS'turnTimer'
p2495
I152
sba(ienemyModule
Enemy
p2496
(dp2497
g2483
g4
(I288
I3104
I32
I32
tp2498
Rp2499
sg2486
I0
sg2487
I0
sg2488
I0
sg2489
I00
sg2490
I0
sg2491
I01
sg2492
g2493
sg2494
I0
sg2495
I114
sba(ienemyModule
Enemy
p2500
(dp2501
g2483
g4
(I416
I6176
I32
I32
tp2502
Rp2503
sg2486
I0
sg2487
I0
sg2488
I0
sg2489
I00
sg2490
I0
sg2491
I01
sg2492
g2493
sg2494
I0
sg2495
I120
sbasS'size'
p2504
(I640
I6240
tp2505
sb.