(ilevelModule
Level
p0
(dp1
S'index'
p2
I1
sS'goal'
p3
cpygame
__rect_constructor
p4
(I6336
I320
I32
I32
tp5
Rp6
sS'paintBalls'
p7
(lp8
sS'messages'
p9
(lp10
(S'Welcome to White World'
p11
(I120
I120
tp12
tp13
a(S'When stuck - Spray ink'
p14
(I775
I120
tp15
tp16
a(S'Click the mouse'
p17
(I980
I215
tp18
tp19
a(S'Watch your step'
p20
(I1580
I200
tp21
tp22
a(S'Danger!!'
p23
(I2200
I330
tp24
tp25
a(S'Do not ink the monsters'
p26
(I2500
I110
tp27
tp28
a(S'We hope you enjoy your stay'
p29
(I5800
I75
tp30
tp31
asS'hazards'
p32
(lp33
g4
(I5664
I256
I32
I32
tp34
Rp35
ag4
(I5696
I256
I32
I32
tp36
Rp37
ag4
(I5728
I256
I32
I32
tp38
Rp39
ag4
(I5760
I256
I32
I32
tp40
Rp41
ag4
(I5792
I256
I32
I32
tp42
Rp43
ag4
(I4608
I320
I32
I32
tp44
Rp45
ag4
(I4608
I352
I32
I32
tp46
Rp47
ag4
(I4608
I384
I32
I32
tp48
Rp49
ag4
(I4768
I384
I32
I32
tp50
Rp51
ag4
(I4800
I384
I32
I32
tp52
Rp53
ag4
(I4832
I384
I32
I32
tp54
Rp55
ag4
(I4864
I384
I32
I32
tp56
Rp57
ag4
(I4896
I384
I32
I32
tp58
Rp59
ag4
(I4928
I384
I32
I32
tp60
Rp61
ag4
(I4960
I384
I32
I32
tp62
Rp63
ag4
(I4992
I384
I32
I32
tp64
Rp65
ag4
(I5024
I384
I32
I32
tp66
Rp67
ag4
(I1632
I416
I32
I32
tp68
Rp69
ag4
(I1664
I416
I32
I32
tp70
Rp71
ag4
(I1696
I416
I32
I32
tp72
Rp73
ag4
(I1728
I416
I32
I32
tp74
Rp75
ag4
(I4608
I416
I32
I32
tp76
Rp77
ag4
(I5664
I416
I32
I32
tp78
Rp79
ag4
(I5696
I416
I32
I32
tp80
Rp81
ag4
(I5728
I416
I32
I32
tp82
Rp83
ag4
(I5760
I416
I32
I32
tp84
Rp85
ag4
(I5792
I416
I32
I32
tp86
Rp87
asS'hazardRotations'
p88
(lp89
I2
aI2
aI2
aI2
aI2
aI1
aI1
aI1
aI0
aI0
aI0
aI0
aI0
aI0
aI0
aI0
aI0
aI0
aI0
aI0
aI0
aI1
aI0
aI0
aI0
aI0
aI0
asS'playerStart'
p90
(I160
I416
tp91
sS'offsetStart'
p92
(I0
I0
tp93
sS'walls'
p94
(lp95
g4
(I0
I0
I32
I32
tp96
Rp97
ag4
(I6368
I0
I32
I32
tp98
Rp99
ag4
(I0
I32
I32
I32
tp100
Rp101
ag4
(I6368
I32
I32
I32
tp102
Rp103
ag4
(I0
I64
I32
I32
tp104
Rp105
ag4
(I6368
I64
I32
I32
tp106
Rp107
ag4
(I0
I96
I32
I32
tp108
Rp109
ag4
(I6368
I96
I32
I32
tp110
Rp111
ag4
(I0
I128
I32
I32
tp112
Rp113
ag4
(I6368
I128
I32
I32
tp114
Rp115
ag4
(I0
I160
I32
I32
tp116
Rp117
ag4
(I4448
I160
I32
I32
tp118
Rp119
ag4
(I4480
I160
I32
I32
tp120
Rp121
ag4
(I4512
I160
I32
I32
tp122
Rp123
ag4
(I6368
I160
I32
I32
tp124
Rp125
ag4
(I0
I192
I32
I32
tp126
Rp127
ag4
(I4320
I192
I32
I32
tp128
Rp129
ag4
(I4352
I192
I32
I32
tp130
Rp131
ag4
(I4384
I192
I32
I32
tp132
Rp133
ag4
(I4768
I192
I32
I32
tp134
Rp135
ag4
(I4800
I192
I32
I32
tp136
Rp137
ag4
(I4832
I192
I32
I32
tp138
Rp139
ag4
(I4864
I192
I32
I32
tp140
Rp141
ag4
(I4896
I192
I32
I32
tp142
Rp143
ag4
(I4928
I192
I32
I32
tp144
Rp145
ag4
(I4960
I192
I32
I32
tp146
Rp147
ag4
(I4992
I192
I32
I32
tp148
Rp149
ag4
(I5024
I192
I32
I32
tp150
Rp151
ag4
(I5056
I192
I32
I32
tp152
Rp153
ag4
(I5088
I192
I32
I32
tp154
Rp155
ag4
(I5120
I192
I32
I32
tp156
Rp157
ag4
(I6368
I192
I32
I32
tp158
Rp159
ag4
(I0
I224
I32
I32
tp160
Rp161
ag4
(I4224
I224
I32
I32
tp162
Rp163
ag4
(I4256
I224
I32
I32
tp164
Rp165
ag4
(I4288
I224
I32
I32
tp166
Rp167
ag4
(I4320
I224
I32
I32
tp168
Rp169
ag4
(I4640
I224
I32
I32
tp170
Rp171
ag4
(I5632
I224
I32
I32
tp172
Rp173
ag4
(I5664
I224
I32
I32
tp174
Rp175
ag4
(I5696
I224
I32
I32
tp176
Rp177
ag4
(I5728
I224
I32
I32
tp178
Rp179
ag4
(I5760
I224
I32
I32
tp180
Rp181
ag4
(I5792
I224
I32
I32
tp182
Rp183
ag4
(I5824
I224
I32
I32
tp184
Rp185
ag4
(I6368
I224
I32
I32
tp186
Rp187
ag4
(I0
I256
I32
I32
tp188
Rp189
ag4
(I2496
I256
I32
I32
tp190
Rp191
ag4
(I2528
I256
I32
I32
tp192
Rp193
ag4
(I2560
I256
I32
I32
tp194
Rp195
ag4
(I2592
I256
I32
I32
tp196
Rp197
ag4
(I2720
I256
I32
I32
tp198
Rp199
ag4
(I2752
I256
I32
I32
tp200
Rp201
ag4
(I2784
I256
I32
I32
tp202
Rp203
ag4
(I2816
I256
I32
I32
tp204
Rp205
ag4
(I4640
I256
I32
I32
tp206
Rp207
ag4
(I4672
I256
I32
I32
tp208
Rp209
ag4
(I4704
I256
I32
I32
tp210
Rp211
ag4
(I5632
I256
I32
I32
tp212
Rp213
ag4
(I5824
I256
I32
I32
tp214
Rp215
ag4
(I6368
I256
I32
I32
tp216
Rp217
ag4
(I0
I288
I32
I32
tp218
Rp219
ag4
(I2464
I288
I32
I32
tp220
Rp221
ag4
(I2496
I288
I32
I32
tp222
Rp223
ag4
(I2816
I288
I32
I32
tp224
Rp225
ag4
(I2848
I288
I32
I32
tp226
Rp227
ag4
(I4064
I288
I32
I32
tp228
Rp229
ag4
(I4096
I288
I32
I32
tp230
Rp231
ag4
(I4128
I288
I32
I32
tp232
Rp233
ag4
(I4160
I288
I32
I32
tp234
Rp235
ag4
(I4640
I288
I32
I32
tp236
Rp237
ag4
(I4704
I288
I32
I32
tp238
Rp239
ag4
(I4736
I288
I32
I32
tp240
Rp241
ag4
(I6368
I288
I32
I32
tp242
Rp243
ag4
(I0
I320
I32
I32
tp244
Rp245
ag4
(I1280
I320
I32
I32
tp246
Rp247
ag4
(I1312
I320
I32
I32
tp248
Rp249
ag4
(I1568
I320
I32
I32
tp250
Rp251
ag4
(I1600
I320
I32
I32
tp252
Rp253
ag4
(I2432
I320
I32
I32
tp254
Rp255
ag4
(I2464
I320
I32
I32
tp256
Rp257
ag4
(I2496
I320
I32
I32
tp258
Rp259
ag4
(I2816
I320
I32
I32
tp260
Rp261
ag4
(I2848
I320
I32
I32
tp262
Rp263
ag4
(I2880
I320
I32
I32
tp264
Rp265
ag4
(I4640
I320
I32
I32
tp266
Rp267
ag4
(I4736
I320
I32
I32
tp268
Rp269
ag4
(I6368
I320
I32
I32
tp270
Rp271
ag4
(I0
I352
I32
I32
tp272
Rp273
ag4
(I1280
I352
I32
I32
tp274
Rp275
ag4
(I1312
I352
I32
I32
tp276
Rp277
ag4
(I1568
I352
I32
I32
tp278
Rp279
ag4
(I1600
I352
I32
I32
tp280
Rp281
ag4
(I2400
I352
I32
I32
tp282
Rp283
ag4
(I2432
I352
I32
I32
tp284
Rp285
ag4
(I2496
I352
I32
I32
tp286
Rp287
ag4
(I2816
I352
I32
I32
tp288
Rp289
ag4
(I2848
I352
I32
I32
tp290
Rp291
ag4
(I2880
I352
I32
I32
tp292
Rp293
ag4
(I2912
I352
I32
I32
tp294
Rp295
ag4
(I4224
I352
I32
I32
tp296
Rp297
ag4
(I4256
I352
I32
I32
tp298
Rp299
ag4
(I4288
I352
I32
I32
tp300
Rp301
ag4
(I4320
I352
I32
I32
tp302
Rp303
ag4
(I4640
I352
I32
I32
tp304
Rp305
ag4
(I4736
I352
I32
I32
tp306
Rp307
ag4
(I5696
I352
I32
I32
tp308
Rp309
ag4
(I5728
I352
I32
I32
tp310
Rp311
ag4
(I5760
I352
I32
I32
tp312
Rp313
ag4
(I6272
I352
I32
I32
tp314
Rp315
ag4
(I6304
I352
I32
I32
tp316
Rp317
ag4
(I6336
I352
I32
I32
tp318
Rp319
ag4
(I6368
I352
I32
I32
tp320
Rp321
ag4
(I0
I384
I32
I32
tp322
Rp323
ag4
(I1088
I384
I32
I32
tp324
Rp325
ag4
(I1120
I384
I32
I32
tp326
Rp327
ag4
(I1152
I384
I32
I32
tp328
Rp329
ag4
(I1184
I384
I32
I32
tp330
Rp331
ag4
(I1280
I384
I32
I32
tp332
Rp333
ag4
(I1312
I384
I32
I32
tp334
Rp335
ag4
(I1440
I384
I32
I32
tp336
Rp337
ag4
(I1472
I384
I32
I32
tp338
Rp339
ag4
(I1568
I384
I32
I32
tp340
Rp341
ag4
(I1600
I384
I32
I32
tp342
Rp343
ag4
(I1760
I384
I32
I32
tp344
Rp345
ag4
(I1792
I384
I32
I32
tp346
Rp347
ag4
(I2368
I384
I32
I32
tp348
Rp349
ag4
(I2400
I384
I32
I32
tp350
Rp351
ag4
(I2496
I384
I32
I32
tp352
Rp353
ag4
(I4384
I384
I32
I32
tp354
Rp355
ag4
(I4416
I384
I32
I32
tp356
Rp357
ag4
(I4448
I384
I32
I32
tp358
Rp359
ag4
(I4640
I384
I32
I32
tp360
Rp361
ag4
(I4736
I384
I32
I32
tp362
Rp363
ag4
(I6272
I384
I32
I32
tp364
Rp365
ag4
(I0
I416
I32
I32
tp366
Rp367
ag4
(I1088
I416
I32
I32
tp368
Rp369
ag4
(I1120
I416
I32
I32
tp370
Rp371
ag4
(I1280
I416
I32
I32
tp372
Rp373
ag4
(I1312
I416
I32
I32
tp374
Rp375
ag4
(I1440
I416
I32
I32
tp376
Rp377
ag4
(I1472
I416
I32
I32
tp378
Rp379
ag4
(I1568
I416
I32
I32
tp380
Rp381
ag4
(I1600
I416
I32
I32
tp382
Rp383
ag4
(I1760
I416
I32
I32
tp384
Rp385
ag4
(I1792
I416
I32
I32
tp386
Rp387
ag4
(I2336
I416
I32
I32
tp388
Rp389
ag4
(I2368
I416
I32
I32
tp390
Rp391
ag4
(I2496
I416
I32
I32
tp392
Rp393
ag4
(I2816
I416
I32
I32
tp394
Rp395
ag4
(I2848
I416
I32
I32
tp396
Rp397
ag4
(I2880
I416
I32
I32
tp398
Rp399
ag4
(I2912
I416
I32
I32
tp400
Rp401
ag4
(I2944
I416
I32
I32
tp402
Rp403
ag4
(I2976
I416
I32
I32
tp404
Rp405
ag4
(I4640
I416
I32
I32
tp406
Rp407
ag4
(I4736
I416
I32
I32
tp408
Rp409
ag4
(I4768
I416
I32
I32
tp410
Rp411
ag4
(I4800
I416
I32
I32
tp412
Rp413
ag4
(I4832
I416
I32
I32
tp414
Rp415
ag4
(I4864
I416
I32
I32
tp416
Rp417
ag4
(I4896
I416
I32
I32
tp418
Rp419
ag4
(I4928
I416
I32
I32
tp420
Rp421
ag4
(I4960
I416
I32
I32
tp422
Rp423
ag4
(I4992
I416
I32
I32
tp424
Rp425
ag4
(I5024
I416
I32
I32
tp426
Rp427
ag4
(I5056
I416
I32
I32
tp428
Rp429
ag4
(I5088
I416
I32
I32
tp430
Rp431
ag4
(I5120
I416
I32
I32
tp432
Rp433
ag4
(I5152
I416
I32
I32
tp434
Rp435
ag4
(I5184
I416
I32
I32
tp436
Rp437
ag4
(I5216
I416
I32
I32
tp438
Rp439
ag4
(I5248
I416
I32
I32
tp440
Rp441
ag4
(I5280
I416
I32
I32
tp442
Rp443
ag4
(I5312
I416
I32
I32
tp444
Rp445
ag4
(I5344
I416
I32
I32
tp446
Rp447
ag4
(I5376
I416
I32
I32
tp448
Rp449
ag4
(I5408
I416
I32
I32
tp450
Rp451
ag4
(I5440
I416
I32
I32
tp452
Rp453
ag4
(I5472
I416
I32
I32
tp454
Rp455
ag4
(I5504
I416
I32
I32
tp456
Rp457
ag4
(I5536
I416
I32
I32
tp458
Rp459
ag4
(I5568
I416
I32
I32
tp460
Rp461
ag4
(I5600
I416
I32
I32
tp462
Rp463
ag4
(I5632
I416
I32
I32
tp464
Rp465
ag4
(I5824
I416
I32
I32
tp466
Rp467
ag4
(I5856
I416
I32
I32
tp468
Rp469
ag4
(I5888
I416
I32
I32
tp470
Rp471
ag4
(I5920
I416
I32
I32
tp472
Rp473
ag4
(I5952
I416
I32
I32
tp474
Rp475
ag4
(I5984
I416
I32
I32
tp476
Rp477
ag4
(I6016
I416
I32
I32
tp478
Rp479
ag4
(I6048
I416
I32
I32
tp480
Rp481
ag4
(I6080
I416
I32
I32
tp482
Rp483
ag4
(I6112
I416
I32
I32
tp484
Rp485
ag4
(I6144
I416
I32
I32
tp486
Rp487
ag4
(I6176
I416
I32
I32
tp488
Rp489
ag4
(I6208
I416
I32
I32
tp490
Rp491
ag4
(I6240
I416
I32
I32
tp492
Rp493
ag4
(I6272
I416
I32
I32
tp494
Rp495
ag4
(I0
I448
I32
I32
tp496
Rp497
ag4
(I32
I448
I32
I32
tp498
Rp499
ag4
(I64
I448
I32
I32
tp500
Rp501
ag4
(I96
I448
I32
I32
tp502
Rp503
ag4
(I128
I448
I32
I32
tp504
Rp505
ag4
(I160
I448
I32
I32
tp506
Rp507
ag4
(I192
I448
I32
I32
tp508
Rp509
ag4
(I224
I448
I32
I32
tp510
Rp511
ag4
(I256
I448
I32
I32
tp512
Rp513
ag4
(I288
I448
I32
I32
tp514
Rp515
ag4
(I320
I448
I32
I32
tp516
Rp517
ag4
(I352
I448
I32
I32
tp518
Rp519
ag4
(I384
I448
I32
I32
tp520
Rp521
ag4
(I416
I448
I32
I32
tp522
Rp523
ag4
(I448
I448
I32
I32
tp524
Rp525
ag4
(I480
I448
I32
I32
tp526
Rp527
ag4
(I512
I448
I32
I32
tp528
Rp529
ag4
(I544
I448
I32
I32
tp530
Rp531
ag4
(I576
I448
I32
I32
tp532
Rp533
ag4
(I608
I448
I32
I32
tp534
Rp535
ag4
(I640
I448
I32
I32
tp536
Rp537
ag4
(I672
I448
I32
I32
tp538
Rp539
ag4
(I704
I448
I32
I32
tp540
Rp541
ag4
(I736
I448
I32
I32
tp542
Rp543
ag4
(I768
I448
I32
I32
tp544
Rp545
ag4
(I800
I448
I32
I32
tp546
Rp547
ag4
(I832
I448
I32
I32
tp548
Rp549
ag4
(I864
I448
I32
I32
tp550
Rp551
ag4
(I896
I448
I32
I32
tp552
Rp553
ag4
(I928
I448
I32
I32
tp554
Rp555
ag4
(I960
I448
I32
I32
tp556
Rp557
ag4
(I992
I448
I32
I32
tp558
Rp559
ag4
(I1024
I448
I32
I32
tp560
Rp561
ag4
(I1056
I448
I32
I32
tp562
Rp563
ag4
(I1088
I448
I32
I32
tp564
Rp565
ag4
(I1120
I448
I32
I32
tp566
Rp567
ag4
(I1152
I448
I32
I32
tp568
Rp569
ag4
(I1184
I448
I32
I32
tp570
Rp571
ag4
(I1216
I448
I32
I32
tp572
Rp573
ag4
(I1248
I448
I32
I32
tp574
Rp575
ag4
(I1280
I448
I32
I32
tp576
Rp577
ag4
(I1312
I448
I32
I32
tp578
Rp579
ag4
(I1344
I448
I32
I32
tp580
Rp581
ag4
(I1376
I448
I32
I32
tp582
Rp583
ag4
(I1408
I448
I32
I32
tp584
Rp585
ag4
(I1440
I448
I32
I32
tp586
Rp587
ag4
(I1472
I448
I32
I32
tp588
Rp589
ag4
(I1504
I448
I32
I32
tp590
Rp591
ag4
(I1536
I448
I32
I32
tp592
Rp593
ag4
(I1568
I448
I32
I32
tp594
Rp595
ag4
(I1600
I448
I32
I32
tp596
Rp597
ag4
(I1632
I448
I32
I32
tp598
Rp599
ag4
(I1664
I448
I32
I32
tp600
Rp601
ag4
(I1696
I448
I32
I32
tp602
Rp603
ag4
(I1728
I448
I32
I32
tp604
Rp605
ag4
(I1760
I448
I32
I32
tp606
Rp607
ag4
(I1792
I448
I32
I32
tp608
Rp609
ag4
(I1824
I448
I32
I32
tp610
Rp611
ag4
(I1856
I448
I32
I32
tp612
Rp613
ag4
(I1888
I448
I32
I32
tp614
Rp615
ag4
(I1920
I448
I32
I32
tp616
Rp617
ag4
(I1952
I448
I32
I32
tp618
Rp619
ag4
(I1984
I448
I32
I32
tp620
Rp621
ag4
(I2016
I448
I32
I32
tp622
Rp623
ag4
(I2048
I448
I32
I32
tp624
Rp625
ag4
(I2080
I448
I32
I32
tp626
Rp627
ag4
(I2112
I448
I32
I32
tp628
Rp629
ag4
(I2144
I448
I32
I32
tp630
Rp631
ag4
(I2176
I448
I32
I32
tp632
Rp633
ag4
(I2208
I448
I32
I32
tp634
Rp635
ag4
(I2240
I448
I32
I32
tp636
Rp637
ag4
(I2272
I448
I32
I32
tp638
Rp639
ag4
(I2304
I448
I32
I32
tp640
Rp641
ag4
(I2336
I448
I32
I32
tp642
Rp643
ag4
(I2496
I448
I32
I32
tp644
Rp645
ag4
(I2528
I448
I32
I32
tp646
Rp647
ag4
(I2560
I448
I32
I32
tp648
Rp649
ag4
(I2592
I448
I32
I32
tp650
Rp651
ag4
(I2624
I448
I32
I32
tp652
Rp653
ag4
(I2656
I448
I32
I32
tp654
Rp655
ag4
(I2688
I448
I32
I32
tp656
Rp657
ag4
(I2720
I448
I32
I32
tp658
Rp659
ag4
(I2752
I448
I32
I32
tp660
Rp661
ag4
(I2784
I448
I32
I32
tp662
Rp663
ag4
(I2816
I448
I32
I32
tp664
Rp665
ag4
(I2976
I448
I32
I32
tp666
Rp667
ag4
(I3008
I448
I32
I32
tp668
Rp669
ag4
(I3040
I448
I32
I32
tp670
Rp671
ag4
(I3072
I448
I32
I32
tp672
Rp673
ag4
(I3104
I448
I32
I32
tp674
Rp675
ag4
(I3136
I448
I32
I32
tp676
Rp677
ag4
(I3168
I448
I32
I32
tp678
Rp679
ag4
(I3200
I448
I32
I32
tp680
Rp681
ag4
(I3232
I448
I32
I32
tp682
Rp683
ag4
(I3264
I448
I32
I32
tp684
Rp685
ag4
(I3296
I448
I32
I32
tp686
Rp687
ag4
(I3328
I448
I32
I32
tp688
Rp689
ag4
(I3360
I448
I32
I32
tp690
Rp691
ag4
(I3392
I448
I32
I32
tp692
Rp693
ag4
(I3424
I448
I32
I32
tp694
Rp695
ag4
(I3456
I448
I32
I32
tp696
Rp697
ag4
(I3488
I448
I32
I32
tp698
Rp699
ag4
(I3520
I448
I32
I32
tp700
Rp701
ag4
(I3552
I448
I32
I32
tp702
Rp703
ag4
(I3584
I448
I32
I32
tp704
Rp705
ag4
(I3616
I448
I32
I32
tp706
Rp707
ag4
(I3648
I448
I32
I32
tp708
Rp709
ag4
(I3680
I448
I32
I32
tp710
Rp711
ag4
(I3712
I448
I32
I32
tp712
Rp713
ag4
(I3744
I448
I32
I32
tp714
Rp715
ag4
(I3776
I448
I32
I32
tp716
Rp717
ag4
(I3808
I448
I32
I32
tp718
Rp719
ag4
(I3840
I448
I32
I32
tp720
Rp721
ag4
(I3872
I448
I32
I32
tp722
Rp723
ag4
(I3904
I448
I32
I32
tp724
Rp725
ag4
(I3936
I448
I32
I32
tp726
Rp727
ag4
(I3968
I448
I32
I32
tp728
Rp729
ag4
(I4000
I448
I32
I32
tp730
Rp731
ag4
(I4032
I448
I32
I32
tp732
Rp733
ag4
(I4064
I448
I32
I32
tp734
Rp735
ag4
(I4096
I448
I32
I32
tp736
Rp737
ag4
(I4128
I448
I32
I32
tp738
Rp739
ag4
(I4160
I448
I32
I32
tp740
Rp741
ag4
(I4192
I448
I32
I32
tp742
Rp743
ag4
(I4224
I448
I32
I32
tp744
Rp745
ag4
(I4256
I448
I32
I32
tp746
Rp747
ag4
(I4288
I448
I32
I32
tp748
Rp749
ag4
(I4320
I448
I32
I32
tp750
Rp751
ag4
(I4352
I448
I32
I32
tp752
Rp753
ag4
(I4384
I448
I32
I32
tp754
Rp755
ag4
(I4416
I448
I32
I32
tp756
Rp757
ag4
(I4448
I448
I32
I32
tp758
Rp759
ag4
(I4480
I448
I32
I32
tp760
Rp761
ag4
(I4512
I448
I32
I32
tp762
Rp763
ag4
(I4544
I448
I32
I32
tp764
Rp765
ag4
(I4576
I448
I32
I32
tp766
Rp767
ag4
(I4608
I448
I32
I32
tp768
Rp769
ag4
(I4640
I448
I32
I32
tp770
Rp771
ag4
(I5632
I448
I32
I32
tp772
Rp773
ag4
(I5664
I448
I32
I32
tp774
Rp775
ag4
(I5696
I448
I32
I32
tp776
Rp777
ag4
(I5728
I448
I32
I32
tp778
Rp779
ag4
(I5760
I448
I32
I32
tp780
Rp781
ag4
(I5792
I448
I32
I32
tp782
Rp783
ag4
(I5824
I448
I32
I32
tp784
Rp785
asS'checkpoints'
p786
(lp787
g4
(I3744
I416
I32
I32
tp788
Rp789
asS'hazardSplatters'
p790
(lp791
sS'splatters'
p792
(lp793
sS'enemies'
p794
(lp795
(ienemyModule
Enemy
p796
(dp797
S'box'
p798
g4
(I6016
I384
I32
I32
tp799
Rp800
sS'vSpeed'
p801
I0
sS'enragedAnimTimer'
p802
I0
sS'curFrame'
p803
I0
sS'tryJump'
p804
I00
sS'enragedTimer'
p805
I0
sS'alive'
p806
I01
sS'facing'
p807
S'L'
p808
sS'frameTimer'
p809
I0
sS'turnTimer'
p810
I193
sba(ienemyModule
Enemy
p811
(dp812
g798
g4
(I2560
I416
I32
I32
tp813
Rp814
sg801
I0
sg802
I0
sg803
I0
sg804
I00
sg805
I0
sg806
I01
sg807
g808
sg809
I0
sg810
I177
sba(ienemyModule
Enemy
p815
(dp816
g798
g4
(I2720
I416
I32
I32
tp817
Rp818
sg801
I0
sg802
I0
sg803
I0
sg804
I00
sg805
I0
sg806
I01
sg807
g808
sg809
I0
sg810
I150
sbasS'size'
p819
(I6400
I480
tp820
sb.